(lp0
(dp1
S'sheep'
p2
(lp3
sS'horse'
p4
(lp5
sS'bicycle'
p6
(lp7
I304
aI297
aI102
aI298
aI347
aI352
aI17
aI20
aI25
aI82
aI239
aI28
aI57
aI359
aI0
aI5
aI155
aI77
aI184
aI146
aI127
aI315
aI260
aI347
aI344
aI93
aI339
aI292
aI45
aI37
aI130
aI87
aI83
aI335
aI328
aI80
aI127
aI329
aI338
aI268
aI275
aI111
aI301
aI170
aI248
aI51
aI218
aI69
aI302
aI336
aI290
aI64
aI111
aI331
aI0
aI10
aI84
aI95
aI311
aI33
aI306
aI182
aI186
aI185
aI176
aI179
aI5
aI237
aI161
aI160
aI270
aI221
aI112
aI294
aI0
aI79
aI57
aI46
aI69
aI94
aI37
aI329
aI314
aI165
aI275
aI286
aI260
aI57
aI93
aI79
aI315
aI325
aI58
aI74
aI349
aI346
aI345
aI355
aI93
aI82
aI112
aI78
aI30
aI43
aI27
aI79
aI297
aI37
aI242
aI270
aI250
aI315
aI302
aI27
aI297
aI206
aI209
aI210
aI232
aI222
aI45
aI67
aI257
aI187
aI220
aI55
aI284
aI257
aI30
aI33
aI89
aI75
aI300
aI117
aI322
aI242
aI165
aI79
aI67
aI76
aI85
aI101
aI101
aI328
aI33
aI50
aI292
aI180
aI188
aI189
aI180
aI147
aI79
aI6
aI247
aI310
aI323
aI164
aI110
aI108
aI112
aI282
aI270
aI327
aI228
aI359
aI63
aI314
aI22
aI316
aI317
aI315
aI198
aI312
aI213
aI166
aI173
aI171
aI286
aI293
aI299
aI306
aI74
aI70
aI84
aI178
aI227
aI45
aI143
aI235
aI327
aI150
aI62
aI111
aI286
aI249
aI300
aI281
aI231
aI4
aI30
aI210
aI250
aI49
aI116
aI41
aI54
aI13
aI0
aI340
aI304
aI235
aI228
aI267
aI75
aI60
aI222
aI57
aI157
aI253
aI33
aI95
aI269
aI292
aI292
aI277
aI35
aI298
aI274
aI272
aI37
aI40
aI87
aI87
aI26
aI270
aI256
aI72
aI242
aI53
aI154
aI134
aI304
aI270
aI264
aI255
aI260
aI74
aI313
aI314
aI158
aI352
aI6
aI288
aI343
aI83
aI56
aI36
aI133
aI200
aI174
aI175
aI182
aI303
aI48
aI288
aI43
aI247
aI236
aI320
aI117
aI18
aI335
aI124
aI229
aI261
aI267
aI45
aI284
aI22
aI57
aI52
aI58
aI61
aI86
aI337
aI331
aI271
aI142
aI206
aI270
aI273
aI255
aI119
aI77
aI72
aI310
aI114
aI180
aI31
aI91
aI275
aI302
aI311
aI320
aI277
aI112
aI74
aI254
aI292
aI270
aI136
aI292
aI59
aI247
aI291
aI92
aI307
aI276
aI22
aI50
aI0
aI213
aI65
aI258
aI277
aI227
aI312
aI287
aI0
aI135
aI132
aI67
aI254
aI264
aI97
aI94
aI85
aI190
aI350
aI271
aI178
aI68
aI113
aI344
aI161
aI87
aI64
aI57
aI57
aI52
aI45
aI343
aI142
aI262
aI151
aI260
aI0
aI34
aI117
aI62
aI100
aI62
aI93
aI267
aI306
aI295
aI18
aI318
aI315
aI103
aI42
aI127
aI257
aI71
aI345
aI302
aI307
aI15
aI178
aI190
aI0
aI272
aI64
aI118
aI36
aI160
aI294
aI125
aI222
aI162
aI305
aI316
aI17
aI115
aI46
aI223
aI152
aI164
aI184
aI305
aI53
aI270
aI340
aI277
aI316
aI95
aI251
aI116
aI155
aI3
aI0
aI0
aI71
aI8
aI326
aI206
aI90
aI132
aI30
aI287
aI131
aI150
aI173
aI0
aI264
aI234
aI81
aI222
aI104
aI15
aI284
aI6
aI340
aI64
aI262
aI327
aI0
aI310
aI347
aI52
aI252
aI278
aI355
aI270
aI104
aI83
aI247
aI185
aI188
aI132
aI340
aI36
aI143
aI283
aI9
aI286
aI262
aI155
aI292
aI326
aI260
aI262
aI141
aI26
aI105
aI54
aI354
aI338
aI273
aI252
aI272
aI68
aI330
aI335
aI180
aI11
aI16
aI67
aI35
aI83
aI12
aI337
aI0
aI222
aI348
aI67
aI72
aI251
aI313
aI69
aI67
aI227
aI0
aI100
aI122
aI153
aI4
aI52
aI25
aI140
aI0
aI130
aI309
aI79
aI33
aI239
aI307
aI290
aI99
aI74
aI290
aI148
aI298
aI68
aI279
aI67
aI35
aI115
aI262
aI119
aI258
aI57
aI96
aI356
aI345
aI218
aI68
aI114
aI265
aI161
aI263
aI6
aI116
aI59
aI96
aI116
aI50
aI330
aI78
aI222
aI20
aI287
aI52
aI287
aI261
aI187
aI234
aI51
aI172
aI330
aI325
aI250
aI51
aI16
aI19
aI43
aI8
aI264
aI52
aI260
aI9
aI18
aI320
aI89
aI112
aI68
aI39
aI47
aI197
aI270
aI245
aI255
aI216
aI0
aI285
aI252
aI31
aI217
aI209
aI5
aI25
aI197
aI299
aI294
aI282
aI47
aI17
aI67
aI331
aI344
aI301
aI356
aI354
aI272
aI274
aI57
aI338
aI247
aI82
aI338
aI224
aI347
aI350
aI354
aI7
aI28
aI62
aI146
aI89
aI338
aI41
aI45
aI76
aI5
aI96
aI294
aI316
aI320
aI292
aI349
aI262
aI241
aI11
aI252
aI287
aI292
aI44
aI350
aI225
aI172
aI28
aI74
aI72
aI67
aI67
aI269
aI351
aI124
aI246
aI64
aI44
aI237
aI141
aI82
aI82
aI292
aI274
aI314
aI347
aI62
aI237
aI204
aI39
aI57
aI26
aI257
aI274
aI345
aI3
aI19
aI10
aI294
aI71
aI9
aI252
aI258
aI72
aI51
aI0
aI294
aI75
aI250
aI100
aI62
aI89
aI340
aI313
aI116
aI296
aI135
aI294
aI333
aI28
aI118
aI43
aI144
aI181
aI109
aI264
aI72
aI293
aI341
aI238
aI284
aI315
aI274
aI64
aI21
aI231
aI294
aI312
aI335
aI49
aI60
aI153
aI259
aI340
aI0
aI6
aI8
aI305
aI352
aI208
aI106
aI51
aI97
aI333
aI117
aI63
aI32
aI102
aI306
aI19
aI295
aI117
aI33
aI42
aI286
aI24
aI247
aI178
aI3
aI255
aI0
aI0
aI43
aI237
aI45
aI347
aI339
aI239
aI351
aI50
aI257
aI33
aI36
aI309
aI257
aI302
aI9
aI128
aI92
aI162
aI180
aI103
aI89
aI2
aI3
aI330
aI84
aI37
aI40
aI72
aI67
aI92
aI105
aI288
aI63
aI79
aI141
aI9
aI80
aI117
aI261
aI267
aI326
aI294
aI119
aI74
aI12
aI119
aI237
aI324
aI299
aI0
aI268
aI102
aI82
aI110
aI287
aI309
aI342
aI315
aI241
aI296
aI41
aI302
aI1
aI8
aI72
aI32
aI222
aI312
aI0
aI297
aI333
aI119
aI354
aI12
aI253
aI90
aI282
aI32
aI240
aI218
aI317
aI286
aI342
aI345
aI344
aI7
aI346
aI184
aI107
aI8
aI237
aI255
aI325
aI107
aI95
aI117
aI137
aI41
aI294
aI46
aI139
aI81
aI117
aI226
aI295
aI3
aI67
aI289
aI263
aI75
aI72
aI111
aI18
aI52
aI15
aI68
aI220
aI278
aI36
aI225
aI103
aI310
aI26
aI62
aI35
aI307
aI14
aI275
aI336
aI85
aI312
aI112
aI359
aI269
aI352
aI271
aI114
aI179
aI44
aI247
aI176
aI99
aI302
aI266
aI13
aI115
aI55
aI197
aI176
aI50
aI69
aI178
aI279
aI89
aI240
aI248
aI24
aI53
aI337
aI259
aI242
aI206
aI130
aI266
aI47
aI78
aI120
aI44
aI310
aI41
aI2
aI223
aI247
aI302
aI287
aI49
aI258
aI44
aI12
aI338
aI348
aI49
aI183
aI249
aI18
aI287
aI261
aI85
aI351
aI74
aI69
aI151
aI32
aI47
aI281
aI72
aI237
aI44
aI336
aI271
aI72
aI57
aI284
aI262
aI67
aI302
aI284
aI243
aI241
aI80
aI67
aI75
aI0
aI97
aI110
aI306
aI342
aI22
aI107
aI342
aI0
aI192
aI16
aI31
aI262
aI9
aI44
aI0
aI1
aI18
aI339
aI147
aI247
aI31
aI66
aI106
aI82
aI247
aI327
aI281
aI164
aI43
aI92
aI253
aI61
aI12
aI19
aI231
aI67
aI0
aI3
aI0
aI40
aI194
aI287
aI134
aI103
aI39
aI280
aI128
aI16
aI182
aI327
aI3
aI308
aI26
aI104
aI50
aI292
aI251
aI310
aI17
aI179
aI256
aI77
aI23
aI126
aI234
aI57
aI277
aI292
aI316
aI249
aI279
aI3
aI179
aI112
aI263
aI211
aI329
aI270
aI211
aI64
aI181
aI67
aI238
aI287
aI253
aI62
aI116
aI245
aI323
aI239
aI166
aI179
aI99
aI297
aI287
aI192
aI144
aI2
aI226
aI316
aI257
aI67
aI288
aI27
aI53
aI76
aI77
aI87
aI326
aI253
aI43
aI243
aI268
aI322
aI50
aI323
aI2
aI285
aI169
aI1
aI19
aI268
aI258
aI68
aI83
aI35
aI79
aI52
aI255
aI216
aI35
aI249
aI270
aI58
aI39
aI3
aI186
aI57
aI310
aI280
aI220
aI287
aI341
aI14
aI356
aI44
aI55
aI277
aI111
aI349
aI52
aI321
aI62
aI302
aI147
aI112
aI284
aI188
aI306
aI3
aI353
aI272
aI83
aI180
aI10
aI336
aI36
aI38
aI322
aI247
aI280
aI101
aI7
aI168
aI20
aI337
aI63
aI263
aI73
aI296
aI4
aI282
aI268
aI63
aI108
aI82
aI100
aI1
aI17
aI346
aI54
aI324
aI316
aI109
aI20
aI334
aI170
aI66
aI56
aI61
aI272
aI73
aI57
aI283
aI103
aI272
aI251
aI58
aI269
aI67
aI68
aI102
aI320
aI242
aI98
aI60
aI224
aI141
aI274
aI109
aI246
aI248
aI21
aI286
aI72
aI26
aI80
aI341
aI310
aI1
aI285
aI90
aI290
aI104
aI97
aI242
aI81
aI348
aI276
aI356
aI22
aI112
aI140
aI281
aI2
aI223
aI346
aI348
aI0
aI223
aI327
aI34
aI263
aI257
aI303
aI99
aI43
aI51
aI59
aI355
aI346
aI312
aI266
aI346
aI16
aI21
aI268
aI345
aI356
aI36
aI320
aI285
aI17
aI320
aI153
aI72
aI350
aI341
aI134
aI143
aI327
aI38
aI320
aI333
aI330
aI292
aI49
aI334
aI63
aI34
aI267
aI129
aI274
aI3
aI336
aI54
aI40
aI11
aI112
aI352
aI270
aI154
aI261
aI321
aI64
aI267
aI68
aI107
aI25
aI305
aI0
aI62
aI243
aI282
aI327
aI295
aI81
aI338
aI247
aI78
aI107
aI26
aI273
aI0
aI236
aI51
aI39
aI112
aI21
aI335
aI345
aI76
aI39
aI300
aI128
aI334
aI249
aI97
aI117
aI19
aI23
aI72
aI325
aI341
aI177
aI342
aI328
aI40
aI245
aI213
aI84
aI254
aI110
aI263
aI320
aI332
aI77
aI42
aI43
aI263
aI276
aI207
aI263
aI323
aI282
aI297
aI0
aI104
aI81
aI55
aI41
aI8
aI228
aI81
aI50
aI62
aI196
aI252
aI330
aI248
aI84
aI247
aI293
aI327
aI325
aI237
aI114
aI87
aI260
aI242
aI242
aI178
aI104
aI112
aI92
aI102
aI67
aI19
aI4
aI71
aI130
aI197
aI30
aI80
aI339
aI182
aI77
aI21
aI67
aI28
aI179
aI14
aI178
aI286
aI262
aI109
aI223
aI119
aI106
aI201
aI285
aI317
aI129
aI67
aI269
aI242
aI344
aI222
aI357
aI232
aI134
aI52
aI119
aI287
aI73
aI189
aI80
aI120
aI88
aI61
aI267
aI11
aI349
aI40
aI7
aI107
aI336
aI36
aI56
aI67
aI311
aI297
aI282
aI0
aI5
aI355
aI255
aI31
aI6
aI249
aI228
aI293
aI113
aI76
aI289
aI247
aI114
aI301
aI67
aI283
aI302
aI255
aI218
aI297
aI57
aI244
aI126
aI336
aI59
aI23
aI0
aI354
aI1
aI7
aI297
aI207
aI290
aI12
aI303
aI315
aI105
aI309
aI205
aI57
aI45
aI235
aI103
aI41
aI86
aI305
aI3
aI269
aI66
aI203
aI301
aI264
aI27
aI272
aI87
aI112
aI162
aI170
aI29
aI335
aI29
aI67
aI116
aI292
aI1
aI322
aI306
aI322
aI272
aI72
aI345
aI30
aI31
aI252
aI267
aI0
aI308
aI54
aI48
aI76
aI23
aI321
aI214
aI1
aI5
aI295
aI223
aI290
aI295
aI334
aI22
aI322
aI240
aI319
aI263
aI15
aI260
aI321
aI70
aI25
aI51
aI268
aI12
aI61
aI288
aI67
aI215
aI218
aI0
aI61
aI96
aI197
aI277
aI222
aI43
aI273
aI316
aI207
aI341
aI121
aI5
aI40
aI319
aI273
aI333
aI324
aI271
aI256
aI171
aI186
aI243
aI87
aI33
aI31
aI343
aI271
aI106
aI292
aI30
aI52
aI296
aI279
aI258
aI22
aI340
aI23
aI8
aI90
aI339
aI300
aI94
aI227
aI57
aI77
aI112
aI83
aI259
aI300
aI272
aI61
aI86
aI60
aI267
aI63
aI46
aI260
aI115
aI117
aI305
aI109
aI347
aI347
aI198
aI58
aI311
aI286
aI174
aI39
aI321
aI157
aI339
aI199
aI52
aI338
aI154
aI292
aI109
aI273
aI319
aI38
aI249
aI24
aI102
aI57
aI66
aI245
aI82
aI262
aI109
aI67
aI63
aI295
aI305
aI323
aI48
aI262
aI42
aI35
aI295
aI266
aI134
aI91
aI190
aI239
aI0
aI177
aI312
aI277
aI344
aI282
aI119
aI321
aI334
aI312
aI333
aI339
aI201
aI98
aI287
aI270
aI305
aI42
aI51
aI262
aI122
aI287
aI13
aI293
aI331
aI215
aI197
aI194
aI0
aI117
aI282
aI0
aI37
aI247
aI107
aI356
aI317
aI142
aI1
aI337
aI257
aI52
aI315
aI270
aI82
aI59
aI327
aI80
aI272
aI178
aI165
aI111
aI192
aI88
aI122
aI122
aI217
aI5
aI104
aI112
aI295
aI128
aI67
aI278
aI4
aI235
aI47
aI115
aI58
aI233
aI132
aI5
aI8
aI6
aI133
aI70
aI16
aI341
aI100
aI9
aI252
aI308
aI292
aI235
aI0
aI60
aI50
aI106
aI68
aI152
aI54
aI282
aI0
aI51
aI262
aI258
aI297
aI307
aI59
aI56
aI117
aI201
aI100
aI52
aI292
aI324
aI287
aI200
aI317
aI277
aI56
aI114
aI194
aI66
aI297
aI74
aI0
aI262
aI247
aI115
aI321
aI252
aI267
aI186
aI345
aI2
aI267
aI19
aI18
aI14
aI67
aI294
aI262
aI55
aI329
asS'motorbike'
p8
(lp9
I358
aI32
aI310
aI345
aI345
aI249
aI67
aI0
aI196
aI54
aI21
aI30
aI205
aI181
aI157
aI209
aI183
aI20
aI230
aI85
aI119
aI205
aI225
aI67
aI149
aI319
aI87
aI300
aI295
aI107
aI34
aI311
aI299
aI244
aI269
aI275
aI303
aI304
aI297
aI325
aI276
aI7
aI2
aI306
aI88
aI130
aI314
aI213
aI87
aI265
aI246
aI214
aI200
aI164
aI74
aI42
aI326
aI75
aI292
aI230
aI274
aI41
aI292
aI269
aI120
aI37
aI260
aI225
aI323
aI30
aI30
aI30
aI29
aI127
aI66
aI310
aI1
aI37
aI69
aI152
aI73
aI358
aI181
aI262
aI319
aI3
aI60
aI20
aI222
aI326
aI18
aI15
aI27
aI18
aI48
aI255
aI105
aI176
aI137
aI79
aI269
aI56
aI297
aI274
aI131
aI260
aI359
aI280
aI196
aI175
aI352
aI323
aI74
aI107
aI50
aI13
aI20
aI102
aI67
aI237
aI264
aI47
aI38
aI13
aI304
aI63
aI59
aI230
aI6
aI300
aI210
aI19
aI25
aI314
aI292
aI343
aI243
aI76
aI58
aI332
aI0
aI88
aI286
aI92
aI252
aI66
aI112
aI312
aI250
aI52
aI67
aI262
aI347
aI308
aI125
aI133
aI47
aI19
aI43
aI312
aI101
aI155
aI138
aI85
aI115
aI61
aI85
aI75
aI67
aI221
aI282
aI165
aI154
aI153
aI138
aI218
aI115
aI15
aI17
aI264
aI263
aI286
aI105
aI244
aI234
aI129
aI124
aI128
aI292
aI156
aI302
aI359
aI340
aI313
aI4
aI252
aI340
aI4
aI264
aI39
aI22
aI26
aI0
aI92
aI310
aI317
aI357
aI252
aI292
aI243
aI251
aI52
aI331
aI278
aI267
aI354
aI238
aI62
aI57
aI292
aI0
aI39
aI87
aI0
aI30
aI269
aI97
aI42
aI55
aI98
aI77
aI128
aI90
aI238
aI0
aI58
aI5
aI99
aI282
aI46
aI236
aI282
aI260
aI246
aI34
aI92
aI247
aI83
aI246
aI209
aI197
aI160
aI214
aI216
aI274
aI112
aI200
aI122
aI108
aI257
aI114
aI149
aI328
aI0
aI354
aI350
aI107
aI104
aI24
aI183
aI180
aI33
aI327
aI307
aI122
aI10
aI262
aI321
aI312
aI130
aI87
aI47
aI16
aI54
aI255
aI267
aI242
aI218
aI58
aI238
aI224
aI355
aI5
aI6
aI0
aI145
aI317
aI82
aI234
aI146
aI28
aI141
aI335
aI265
aI290
aI17
aI24
aI122
aI270
aI258
aI307
aI329
aI233
aI32
aI36
aI1
aI58
aI222
aI268
aI21
aI67
aI85
aI70
aI312
aI34
aI42
aI42
aI108
aI54
aI102
aI85
aI0
aI95
aI65
aI75
aI93
aI28
aI345
aI1
aI2
aI209
aI233
aI52
aI118
aI349
aI199
aI192
aI48
aI290
aI213
aI297
aI72
aI75
aI345
aI103
aI293
aI180
aI292
aI186
aI236
aI37
aI228
aI2
aI2
aI28
aI330
aI315
aI277
aI48
aI77
aI129
aI150
aI174
aI276
aI268
aI334
aI328
aI318
aI269
aI130
aI237
aI186
aI175
aI154
aI316
aI297
aI319
aI126
aI334
aI311
aI268
aI62
aI237
aI73
aI194
aI334
aI53
aI84
aI8
aI92
aI29
aI159
aI318
aI35
aI287
aI210
aI78
aI316
aI41
aI287
aI337
aI103
aI302
aI322
aI31
aI351
aI127
aI158
aI37
aI256
aI32
aI244
aI292
aI159
aI337
aI309
aI112
aI350
aI45
aI77
aI89
aI84
aI146
aI351
aI336
aI260
aI260
aI76
aI112
aI341
aI90
aI48
aI359
aI292
aI343
aI202
aI272
aI43
aI272
aI112
aI282
aI270
aI17
aI316
aI322
aI321
aI9
aI287
aI142
aI55
aI75
aI100
aI165
aI48
aI199
aI150
aI252
aI329
aI22
aI307
aI29
aI282
aI10
aI47
aI19
aI318
aI62
aI222
aI251
aI127
aI54
aI47
aI314
aI319
aI226
aI44
aI112
aI161
aI332
aI97
aI318
aI122
aI16
aI97
aI270
aI234
aI252
aI289
aI222
aI67
aI354
aI0
aI337
aI342
aI326
aI56
aI267
aI138
aI258
aI270
aI344
aI35
aI72
aI185
aI202
aI221
aI247
aI314
aI133
aI10
aI276
aI89
aI238
aI66
aI1
aI76
aI192
aI331
aI8
aI15
aI238
aI22
aI167
aI156
aI70
aI313
aI6
aI171
aI33
aI85
aI257
aI123
aI270
aI98
aI30
aI306
aI299
aI342
aI38
aI305
aI263
aI42
aI293
aI259
aI57
aI352
aI300
aI307
aI0
aI37
aI264
aI0
aI247
aI258
aI71
aI37
aI200
aI80
aI62
aI7
aI344
aI261
aI48
aI278
aI295
aI77
aI0
aI216
aI77
aI88
aI271
aI237
aI256
aI56
aI351
aI192
aI222
aI73
aI247
aI28
aI283
aI0
aI257
aI131
aI62
aI75
aI301
aI267
aI20
aI241
aI305
aI150
aI185
aI321
aI234
aI303
aI230
aI41
aI27
aI84
aI23
aI17
aI236
aI332
aI282
aI321
aI290
aI100
aI67
aI46
aI287
aI37
aI324
aI258
aI0
aI272
aI52
aI26
aI317
aI34
aI212
aI190
aI317
aI136
aI262
aI31
aI317
aI319
aI142
aI300
aI331
aI166
aI172
aI107
aI292
aI67
aI282
aI129
aI82
aI28
aI247
aI224
aI111
aI22
aI80
aI128
aI62
aI4
aI112
aI87
aI124
aI32
aI239
aI59
aI70
aI324
aI57
aI350
aI86
aI320
aI322
aI315
aI220
aI345
aI92
aI64
aI107
aI326
aI101
aI63
aI60
aI349
aI297
aI102
aI62
aI1
aI235
aI0
aI47
aI324
aI15
aI247
aI317
aI38
aI227
aI52
aI71
aI198
aI75
aI30
aI235
aI247
aI8
aI51
aI8
aI205
aI84
aI338
aI294
aI278
aI327
aI302
aI279
aI0
aI277
aI319
aI57
aI11
aI262
aI50
aI322
aI259
aI24
aI284
aI61
aI126
aI272
aI52
aI321
aI254
aI327
aI296
aI277
aI327
aI282
aI217
aI315
aI59
aI321
aI0
aI200
aI21
aI93
aI62
aI50
aI31
aI32
aI325
aI7
aI85
aI107
aI287
aI310
aI207
aI303
aI310
aI278
aI347
aI125
aI299
aI0
aI22
aI94
aI272
aI322
aI341
aI47
aI4
aI283
aI21
aI25
aI346
aI72
aI6
aI73
aI306
aI9
aI269
aI289
aI316
aI339
aI126
aI8
aI47
aI270
aI337
aI19
aI355
aI0
aI338
aI250
aI32
aI332
aI350
aI135
aI311
aI297
aI26
aI224
aI0
aI180
aI170
aI164
aI67
aI285
aI303
aI267
aI0
aI331
aI289
aI67
aI306
aI131
aI330
aI332
aI54
aI256
aI57
aI338
aI340
aI182
aI274
aI112
aI305
aI249
aI127
aI49
aI0
aI0
aI62
aI11
aI185
aI90
aI116
aI165
aI328
aI23
aI242
aI357
aI73
aI39
aI336
aI336
aI112
aI319
aI0
aI345
aI228
aI37
aI283
aI270
aI107
aI101
aI246
aI306
aI164
aI242
aI134
aI36
aI262
aI98
aI5
aI277
aI45
aI29
aI69
aI0
aI87
aI51
aI330
aI318
aI31
aI270
aI338
aI320
aI73
aI341
aI89
aI10
aI107
aI60
aI261
aI251
aI56
aI215
aI207
aI54
aI252
aI262
aI247
aI25
aI146
aI323
aI20
aI346
aI324
aI82
aI81
aI82
aI178
aI53
aI137
aI277
aI57
aI268
aI112
aI24
aI312
aI265
aI308
aI6
aI14
aI3
aI299
aI47
aI277
aI352
aI293
aI308
aI188
aI126
aI325
aI322
aI75
aI323
aI320
aI190
aI252
aI267
aI65
aI87
aI87
aI268
aI17
aI3
aI325
aI62
aI40
aI319
aI310
aI91
aI277
aI282
aI332
aI212
aI210
aI34
aI122
aI316
aI257
aI328
aI103
aI61
aI28
aI332
aI225
aI60
aI239
aI308
aI65
aI67
aI349
aI131
aI272
aI0
aI42
aI31
aI332
aI4
aI313
aI179
aI308
aI61
aI43
aI345
aI318
aI62
aI138
aI324
aI282
aI300
aI282
aI139
aI28
aI313
aI242
aI316
aI337
aI291
aI92
aI353
aI218
aI147
aI137
aI332
aI103
aI42
aI331
aI47
aI321
aI292
aI242
aI125
aI55
aI104
aI82
aI56
aI203
aI7
aI103
aI335
aI42
aI279
aI308
aI235
aI247
aI43
aI299
aI297
aI333
aI285
aI283
aI120
aI220
aI117
aI315
aI296
aI324
aI170
aI317
aI182
aI326
aI97
aI125
aI14
aI310
aI47
aI273
aI220
aI65
aI287
aI351
aI270
aI287
aI97
aI27
aI57
aI332
aI101
aI32
aI77
aI329
aI321
aI268
aI218
aI146
aI82
aI83
aI329
aI120
aI344
aI112
aI319
aI78
aI23
aI192
aI339
aI15
aI26
aI315
aI325
aI0
aI312
aI157
aI327
aI320
aI267
aI314
aI199
aI28
aI143
aI2
aI99
aI52
aI57
aI292
aI282
aI253
aI270
aI317
aI121
aI19
aI270
aI266
aI267
aI233
aI357
aI99
aI124
aI262
aI132
aI210
aI88
aI21
aI18
aI124
aI244
aI24
aI42
aI101
aI63
aI260
aI27
aI132
aI32
aI330
aI317
aI277
aI58
aI65
aI169
aI292
aI64
aI33
aI340
aI269
aI0
aI286
aI25
aI292
aI33
aI321
aI322
aI33
aI305
aI227
aI329
aI313
aI339
aI349
aI242
aI63
aI23
aI12
aI291
aI27
aI247
aI334
aI279
aI62
aI273
aI281
aI51
aI128
aI272
aI250
aI143
aI306
aI343
aI222
aI319
aI150
aI67
aI188
aI316
aI240
aI265
aI34
aI142
aI6
aI29
aI67
aI3
aI218
aI126
aI330
aI47
aI77
aI320
aI319
aI317
aI355
aI294
aI300
aI117
aI116
aI62
aI319
aI331
aI340
aI49
aI169
aI35
aI310
aI158
aI51
aI36
aI64
aI307
aI305
aI325
aI61
aI23
aI36
aI27
aI232
aI265
aI327
aI297
aI24
aI251
aI303
aI282
aI296
aI295
aI103
aI232
aI210
aI59
aI15
aI262
aI252
aI325
aI314
aI254
aI347
aI44
aI47
aI170
aI73
aI253
aI333
aI60
aI53
aI316
aI287
aI0
aI82
aI253
aI268
aI101
aI247
aI41
aI272
aI61
aI67
aI14
aI318
aI87
aI21
aI298
aI285
aI336
aI31
aI122
aI97
aI302
aI39
aI308
aI40
aI299
aI87
aI0
aI40
aI71
aI276
aI247
aI76
aI13
aI37
aI294
aI21
aI293
aI247
aI302
aI299
aI307
aI137
aI49
aI342
aI287
aI277
aI43
aI311
aI349
aI272
aI47
aI292
aI287
aI10
aI313
aI312
aI60
aI112
aI215
aI191
aI315
aI191
aI181
aI300
aI0
aI180
aI13
aI142
aI272
aI29
aI0
aI255
aI21
aI181
aI117
aI272
aI187
aI22
aI308
aI321
aI225
aI37
aI33
aI97
aI323
aI87
aI41
aI265
aI80
aI72
aI352
aI3
aI349
aI328
aI228
aI297
aI272
aI248
aI227
aI353
aI33
aI137
aI97
aI341
aI0
aI312
aI112
aI286
aI317
aI56
aI302
aI318
aI21
aI282
aI312
aI225
aI61
aI13
aI320
aI106
aI120
aI230
aI241
aI251
aI247
aI38
aI56
aI0
aI347
aI124
aI275
aI19
aI114
aI332
aI78
aI318
aI317
aI117
aI323
aI33
aI43
aI295
aI4
aI165
aI174
aI18
aI333
aI337
aI242
aI271
aI330
aI92
aI67
aI240
aI241
aI300
aI202
aI68
aI243
aI51
aI77
aI331
aI117
aI359
aI145
aI0
aI0
aI357
aI52
aI108
aI307
aI77
aI237
aI1
aI247
aI47
aI39
aI9
aI0
aI338
aI295
aI35
aI322
aI258
aI120
aI242
aI230
aI0
aI151
aI0
aI77
aI57
aI354
aI292
aI13
aI68
aI28
aI292
aI317
aI305
aI15
aI70
aI127
aI348
aI41
aI51
aI272
aI319
aI122
aI114
aI111
aI77
aI149
aI29
aI138
aI252
aI340
aI68
aI134
aI64
aI332
aI287
aI39
aI248
aI142
aI297
aI320
aI178
aI246
aI77
aI247
aI236
aI94
aI14
aI4
aI277
aI44
aI145
aI96
aI57
aI48
aI93
aI282
aI312
aI70
aI0
aI295
aI62
aI350
aI346
aI100
aI34
aI273
aI342
aI68
aI157
aI32
aI311
aI31
aI0
aI115
aI257
aI72
aI329
aI9
aI226
aI64
aI38
aI302
aI67
aI78
aI308
aI332
aI104
aI339
aI350
aI107
aI112
aI315
aI82
aI333
aI245
aI242
aI8
aI120
aI290
aI32
aI42
aI48
aI330
aI122
aI72
aI148
aI326
aI87
aI37
aI156
aI193
aI237
aI330
aI36
aI292
aI239
aI28
aI335
aI73
aI68
aI222
aI248
aI303
aI37
aI179
aI311
aI355
aI84
aI355
aI0
aI45
aI19
aI238
aI29
aI202
aI193
aI37
aI0
aI322
aI287
aI98
aI70
aI94
aI90
aI59
aI232
aI247
aI39
aI126
aI17
aI312
aI319
aI256
aI316
aI282
aI318
aI313
aI265
aI67
aI266
aI272
aI331
aI205
aI24
aI115
aI25
aI335
aI332
aI35
aI238
aI34
aI261
aI345
aI316
aI252
aI112
aI302
aI359
aI325
aI82
aI243
aI326
aI16
aI74
aI139
aI350
aI90
aI329
aI303
aI303
aI42
aI253
aI349
aI249
aI352
aI343
aI95
aI318
aI37
aI323
aI265
aI292
aI324
aI116
aI315
aI2
aI313
aI346
aI334
asS'cow'
p10
(lp11
sS'sofa'
p12
(lp13
I30
aI0
aI0
aI182
aI350
aI337
aI85
aI305
aI10
aI0
aI0
aI32
aI289
aI5
aI21
aI95
aI2
aI126
aI25
aI5
aI9
aI0
aI0
aI22
aI302
aI6
aI317
aI250
aI36
aI105
aI210
aI92
aI343
aI80
aI0
aI59
aI10
aI0
aI6
aI340
aI160
aI77
aI65
aI278
aI8
aI10
aI195
aI0
aI15
aI347
aI0
aI75
aI3
aI36
aI180
aI355
aI23
aI105
aI155
aI265
aI85
aI80
aI19
aI10
aI1
aI271
aI359
aI0
aI255
aI255
aI323
aI105
aI308
aI26
aI342
aI266
aI271
aI68
aI0
aI352
aI309
aI110
aI0
aI24
aI105
aI315
aI15
aI2
aI317
aI37
aI0
aI292
aI30
aI282
aI37
aI5
aI80
aI62
aI332
aI21
aI35
aI0
aI359
aI28
aI67
aI260
aI280
aI150
aI329
aI5
aI32
aI10
aI8
aI10
aI38
aI5
aI0
aI15
aI330
aI61
aI92
aI3
aI22
aI335
aI15
aI0
aI325
aI3
aI290
aI0
aI288
aI348
aI17
aI6
aI251
aI260
aI5
aI345
aI22
aI65
aI71
aI49
aI351
aI46
aI0
aI0
aI0
aI48
aI38
aI303
aI315
aI200
aI37
aI355
aI7
aI0
aI290
aI8
aI338
aI26
aI41
aI0
aI355
aI342
aI347
aI321
aI37
aI335
aI1
aI27
aI25
aI307
aI16
aI35
aI48
aI329
aI0
aI75
aI75
aI58
aI275
aI245
aI327
aI322
aI312
aI0
aI5
aI328
aI0
aI310
aI50
aI270
aI334
aI58
aI0
aI353
aI120
aI275
aI320
aI87
aI14
aI265
aI330
aI0
aI175
aI57
aI57
aI0
aI273
aI80
aI69
aI0
aI13
aI328
aI305
aI0
aI34
aI10
aI185
aI298
aI68
aI265
aI47
aI1
aI100
aI330
aI325
aI30
aI88
aI344
aI160
aI22
aI355
aI283
aI185
aI18
aI309
aI319
aI76
aI335
aI3
aI322
aI0
aI0
aI265
aI345
aI62
aI5
aI302
aI7
aI20
aI7
aI282
aI358
aI82
aI7
aI340
aI35
aI35
aI1
aI265
aI342
aI60
aI319
aI313
aI355
aI32
aI15
aI43
aI0
aI305
aI320
aI180
aI0
aI320
aI0
aI335
aI30
aI278
aI121
aI265
aI335
aI0
aI22
aI90
aI15
aI18
aI0
aI337
aI301
aI350
aI84
aI313
aI339
aI265
aI0
aI40
aI24
aI46
aI5
aI80
aI196
aI310
aI320
aI36
aI312
aI30
aI337
aI355
aI10
aI0
aI205
aI245
aI15
aI309
aI21
aI15
aI230
aI6
aI16
aI0
aI0
aI263
aI5
aI20
aI0
aI62
aI81
aI325
aI348
aI9
aI10
aI0
aI87
aI36
aI314
aI20
aI103
aI70
aI0
aI275
aI0
aI2
aI260
aI115
aI311
aI103
aI242
aI345
aI351
aI285
aI276
aI22
aI75
aI0
aI0
aI38
aI73
aI0
aI58
aI205
aI310
aI95
aI345
aI36
aI0
aI299
aI315
aI47
aI328
aI52
aI72
aI14
aI22
aI9
aI39
aI285
aI350
aI252
aI75
aI5
aI300
aI15
aI252
aI310
aI0
aI270
aI0
aI55
aI345
aI0
aI349
aI45
aI37
aI57
aI5
aI240
aI121
aI359
aI46
aI336
aI29
aI341
aI14
aI330
aI311
aI311
aI0
aI312
aI10
aI0
aI38
aI0
aI56
aI9
aI31
aI327
aI334
aI2
aI0
aI315
aI296
aI1
aI0
aI342
aI0
aI0
aI277
aI272
aI331
aI25
aI0
aI350
aI312
aI0
aI42
aI327
aI54
aI2
aI27
aI32
aI0
aI321
aI25
aI0
aI327
aI24
aI6
aI0
aI341
aI29
aI341
aI0
aI8
aI296
aI338
aI344
aI265
aI0
aI49
aI0
aI0
aI0
aI0
aI22
aI344
aI304
aI14
aI0
aI339
aI359
aI325
aI42
aI38
aI2
aI323
aI37
aI37
aI0
aI330
aI0
aI350
aI21
aI347
aI8
aI27
aI2
aI317
aI344
aI20
aI0
aI42
aI8
aI311
aI28
aI0
aI0
aI340
aI16
aI23
aI333
aI0
aI0
aI0
aI307
aI21
aI333
aI0
aI9
aI304
aI31
aI344
aI341
aI0
aI10
aI61
aI359
aI328
aI154
aI0
aI22
aI1
aI0
aI2
aI341
aI308
aI34
aI297
aI5
aI9
aI1
aI0
aI0
aI0
aI4
aI314
aI308
aI0
aI0
aI0
aI1
aI3
aI308
aI0
aI315
aI17
aI270
aI325
aI15
aI18
aI3
aI0
aI327
aI46
aI2
aI322
aI52
aI0
aI359
aI40
aI316
aI10
aI355
aI22
aI39
aI0
aI0
aI317
aI0
aI29
aI313
aI0
aI57
aI0
aI324
aI326
aI344
aI9
aI359
aI343
aI341
aI305
aI26
aI2
aI3
aI324
aI21
aI322
aI48
aI0
aI346
aI13
aI343
aI0
aI26
aI316
aI0
aI18
aI1
aI335
aI63
aI331
aI43
aI120
aI4
aI14
aI19
aI6
aI346
aI0
aI0
aI0
aI26
aI313
aI5
aI319
aI312
aI14
aI21
aI318
aI19
aI0
aI290
aI0
aI70
aI0
aI16
aI298
aI23
aI0
aI337
aI30
aI9
aI0
aI91
aI283
aI339
aI333
aI0
aI12
aI312
aI1
aI38
aI10
aI0
aI53
aI300
aI326
aI50
aI7
aI3
aI24
aI337
aI26
aI0
aI0
aI320
aI52
aI328
aI19
aI0
aI6
aI288
aI345
aI8
aI1
aI0
aI0
aI303
aI13
aI0
aI36
aI0
aI0
aI63
aI60
aI0
aI12
aI0
aI334
aI0
aI20
aI347
aI31
aI349
aI2
aI349
aI61
aI312
aI339
aI42
aI297
aI22
aI340
aI0
aI312
aI11
aI336
aI330
aI4
aI0
aI0
aI347
aI0
aI0
aI326
aI338
aI0
aI348
aI3
aI23
aI347
aI0
aI1
aI1
aI296
aI26
aI51
aI348
aI1
aI32
aI85
aI13
aI4
aI300
aI27
aI324
aI20
aI4
aI293
aI0
aI14
aI351
aI60
aI335
aI29
aI0
aI315
aI25
aI322
aI347
aI307
aI0
aI325
aI21
aI0
aI325
aI26
aI280
aI332
aI338
aI34
aI238
aI8
aI0
aI340
aI44
aI43
aI82
aI0
aI0
aI0
aI326
aI18
aI0
aI10
aI0
aI286
aI332
aI47
aI0
aI58
aI345
aI0
aI338
aI0
aI0
aI0
aI0
aI3
aI349
aI310
aI0
aI304
aI0
aI54
aI341
aI345
aI47
aI339
aI3
aI321
aI16
aI283
aI36
aI0
aI0
aI40
aI322
aI24
aI0
aI33
aI2
aI13
aI2
aI49
aI0
aI1
aI312
aI3
aI343
aI5
aI26
aI0
aI347
aI18
aI9
aI0
aI343
aI12
aI347
aI335
aI317
aI330
aI58
aI346
aI332
aI337
aI36
aI6
aI350
aI322
aI0
aI351
aI55
aI0
aI10
aI326
aI317
aI38
aI359
aI0
aI0
aI1
aI0
aI0
aI329
aI302
aI356
aI15
aI5
aI315
aI42
aI4
aI322
aI39
aI0
aI0
aI45
aI32
aI334
aI334
aI51
aI320
aI325
aI25
aI327
aI305
aI0
aI0
aI42
aI0
aI1
aI348
aI42
aI356
aI322
aI315
aI39
aI1
aI0
aI0
aI61
aI5
aI23
aI0
aI2
aI310
aI0
aI340
aI332
aI2
aI337
aI12
aI0
aI0
aI336
aI292
aI331
aI21
aI36
aI0
aI0
aI0
aI0
aI0
aI2
aI16
aI307
aI8
aI15
aI11
aI352
aI61
aI24
aI314
aI45
aI109
aI7
aI5
aI0
aI0
aI272
aI138
aI9
aI323
aI336
aI324
aI63
aI23
aI328
aI0
aI30
aI285
aI324
aI349
aI0
aI243
aI317
aI0
aI0
aI2
aI3
aI14
aI0
aI0
aI317
aI4
aI359
aI67
aI150
aI0
aI207
aI348
aI0
aI349
aI344
aI352
aI338
aI29
aI324
aI17
aI299
aI315
aI332
aI39
aI334
aI58
aI0
aI0
aI339
aI0
aI20
aI0
aI0
aI335
aI329
aI55
aI318
aI350
aI0
aI42
aI13
aI326
aI23
aI312
aI332
aI15
aI0
aI15
aI0
aI321
aI0
aI316
aI22
aI0
aI327
aI332
aI32
aI336
aI0
aI0
aI0
aI62
aI26
aI4
aI325
aI319
aI55
aI306
aI3
aI348
aI318
aI0
aI353
aI348
aI0
aI5
aI301
aI37
aI0
aI21
aI18
aI330
aI39
aI0
aI0
aI0
aI16
aI336
aI48
aI61
aI11
aI37
aI343
aI0
aI28
aI0
aI0
aI0
aI0
aI0
aI319
aI0
aI13
aI1
aI309
aI29
aI0
aI332
aI59
aI340
aI3
aI34
aI3
aI1
aI0
aI46
aI17
aI0
aI0
aI32
aI327
aI50
aI350
aI323
aI11
aI20
aI0
aI339
aI296
aI338
aI5
aI330
aI324
aI0
aI0
aI291
aI321
aI34
aI0
aI11
aI72
aI0
aI345
aI1
aI357
aI0
aI20
aI311
aI330
aI7
aI31
aI6
aI296
aI0
aI0
aI0
aI42
aI309
aI14
aI301
aI0
aI342
aI355
aI340
aI314
aI10
aI0
aI0
aI352
aI305
aI344
aI37
aI336
aI268
aI46
aI349
aI46
aI359
aI131
aI9
aI0
aI335
aI357
aI0
aI42
aI308
aI19
aI0
aI326
aI0
aI0
aI27
aI12
aI3
aI0
aI338
aI332
aI0
aI0
aI0
aI331
aI15
aI12
aI9
aI45
aI126
aI327
aI50
aI318
aI7
aI4
aI0
aI5
aI1
aI25
aI331
aI300
aI16
aI0
aI0
aI37
aI27
aI0
aI7
aI327
aI336
aI3
aI331
aI57
aI351
aI3
aI0
aI14
aI312
aI20
aI0
aI317
aI39
aI336
aI334
aI0
aI52
aI0
aI185
aI348
aI0
aI0
aI344
aI0
aI322
aI37
aI47
aI1
aI322
aI2
aI355
aI329
aI319
aI5
aI0
aI19
aI335
aI27
aI346
aI295
aI2
aI0
aI13
aI8
aI0
aI311
aI9
aI0
aI0
aI16
aI0
aI0
aI25
aI0
aI47
aI2
aI25
aI0
aI297
aI287
aI0
aI0
aI305
aI29
aI38
aI322
aI25
aI317
aI43
aI0
aI17
aI332
aI0
aI0
aI350
aI53
aI347
aI0
aI329
aI316
aI26
aI47
aI17
aI35
aI28
aI0
aI36
aI0
aI341
aI0
aI335
aI41
aI122
aI0
aI0
aI26
aI30
aI27
aI0
aI0
aI52
aI14
aI0
aI3
aI0
aI7
aI349
aI0
aI0
aI0
aI12
aI0
aI3
aI68
aI0
aI9
aI329
aI52
aI28
aI0
aI0
aI0
aI342
aI35
aI306
aI24
aI333
aI50
aI312
aI25
aI0
aI0
aI330
aI35
aI28
aI350
aI348
aI0
aI295
aI20
aI0
aI0
aI0
aI27
aI0
aI24
aI333
aI42
aI0
aI353
aI0
aI4
aI339
aI38
aI343
aI297
aI1
aI319
aI0
aI3
aI333
aI327
aI29
aI0
aI2
aI6
aI83
aI23
aI323
aI10
aI329
aI337
aI2
aI0
aI354
aI0
aI345
aI37
aI0
aI353
aI15
aI28
aI290
aI21
aI347
aI338
aI28
aI46
aI346
aI328
aI52
aI0
aI0
aI339
aI323
aI2
aI1
aI321
aI31
aI0
aI33
aI2
aI326
aI37
aI8
aI0
aI10
aI20
aI16
aI24
aI312
aI322
aI49
aI0
aI0
aI300
aI350
aI31
aI15
aI355
aI4
aI22
aI0
aI4
aI9
aI323
aI5
aI354
aI1
aI0
aI324
aI36
aI2
aI0
aI45
aI0
aI0
aI0
aI354
aI3
aI304
aI0
aI0
aI39
aI3
aI341
aI17
aI0
aI0
aI0
aI0
aI320
aI33
aI336
aI39
aI1
aI321
aI9
aI0
aI0
aI337
aI13
aI0
aI348
aI351
aI1
aI0
aI0
aI55
aI0
aI0
aI0
aI47
aI315
aI0
aI337
aI48
aI337
aI0
aI0
aI353
aI0
aI2
aI331
aI29
aI327
aI16
aI259
aI317
aI0
aI23
aI342
aI0
aI46
aI325
aI44
aI0
aI0
aI0
aI319
aI29
aI327
aI16
aI25
aI81
aI330
aI52
aI10
aI312
aI37
aI327
aI0
aI0
aI0
aI316
aI6
aI316
aI6
aI0
aI45
aI338
aI0
aI0
aI320
aI324
aI322
aI0
aI0
aI4
aI346
aI322
aI0
aI30
aI357
aI331
aI24
aI125
aI327
aI0
aI0
aI11
aI2
aI343
aI0
aI0
aI0
aI329
aI28
aI120
aI3
aI0
aI318
aI306
aI0
aI60
aI318
aI20
aI326
aI54
aI345
aI0
aI327
aI54
aI0
aI8
aI329
aI328
aI17
aI355
aI4
aI28
aI0
aI12
aI350
aI34
aI0
aI0
aI335
aI14
aI9
aI35
aI334
aI346
aI46
aI0
aI0
aI342
aI340
aI0
aI0
aI42
aI45
aI5
aI46
aI13
aI311
aI2
aI65
aI0
aI5
aI0
aI0
aI0
aI13
aI17
aI0
aI266
aI319
aI0
aI0
aI3
aI3
aI20
aI11
aI0
aI0
aI249
aI351
aI342
aI334
aI42
aI299
aI36
aI330
aI0
aI292
aI9
aI0
aI334
aI0
aI0
aI29
aI34
aI38
aI0
aI322
aI43
aI0
aI56
aI310
aI43
aI68
aI69
aI59
aI348
aI325
aI340
aI348
aI0
aI322
aI53
aI0
aI0
aI0
aI11
aI2
aI330
aI17
aI304
aI0
aI8
aI0
aI22
aI338
aI33
aI0
aI347
aI339
aI332
aI56
aI157
aI328
aI0
aI49
aI334
aI325
aI0
aI3
aI305
aI3
aI309
aI17
aI26
aI0
aI343
aI24
aI48
aI347
aI321
aI357
aI32
aI335
aI324
aI35
aI250
aI2
aI28
aI0
aI49
aI0
aI0
aI0
aI0
aI2
aI0
aI295
aI333
aI52
aI52
aI188
aI308
aI8
aI6
aI0
aI322
aI350
aI28
aI324
aI0
aI356
aI285
aI355
aI37
aI343
aI327
aI25
aI349
aI35
aI338
aI15
aI27
aI0
aI295
aI325
aI330
aI359
aI1
aI60
aI163
aI31
aI0
aI24
aI0
aI0
aI90
aI308
aI0
aI0
aI42
aI1
aI0
aI0
aI2
aI336
aI315
aI24
aI0
aI336
aI1
aI33
aI47
aI0
aI314
aI19
aI0
aI0
aI0
aI342
aI1
aI2
aI78
aI47
aI0
aI346
aI0
aI339
aI33
aI281
aI345
aI44
aI0
aI7
aI0
aI29
aI326
aI34
aI303
aI351
aI57
aI101
aI0
aI340
aI32
aI33
aI0
aI1
aI331
aI0
aI4
aI0
aI342
aI0
aI0
aI15
aI24
aI0
aI330
aI309
aI7
aI327
aI51
aI341
aI21
aI0
aI20
aI44
aI0
aI0
aI0
aI0
aI348
aI312
aI24
aI331
aI56
aI340
aI4
aI0
aI0
aI351
aI322
aI323
aI0
aI330
aI52
aI13
aI93
aI42
aI134
aI5
aI314
aI33
aI226
aI334
aI60
aI0
aI337
aI5
aI327
aI10
aI350
aI316
aI23
aI327
aI0
aI0
aI7
aI356
aI29
aI0
aI28
aI328
aI338
aI3
aI33
aI345
aI321
aI316
aI45
aI351
aI0
aI0
aI347
aI351
aI344
aI20
aI319
aI16
aI30
aI333
aI337
aI338
aI345
aI28
aI0
aI0
aI333
aI56
aI352
aI321
asS'bus'
p14
(lp15
I347
aI90
aI346
aI350
aI17
aI194
aI14
aI349
aI349
aI0
aI328
aI6
aI62
aI40
aI343
aI10
aI84
aI43
aI340
aI339
aI6
aI0
aI206
aI319
aI207
aI260
aI340
aI319
aI339
aI323
aI71
aI29
aI6
aI345
aI33
aI62
aI164
aI185
aI185
aI5
aI17
aI270
aI14
aI40
aI25
aI21
aI12
aI237
aI121
aI312
aI186
aI47
aI50
aI70
aI29
aI338
aI12
aI185
aI345
aI350
aI45
aI7
aI10
aI328
aI156
aI180
aI237
aI335
aI327
aI335
aI238
aI355
aI343
aI190
aI5
aI29
aI218
aI336
aI15
aI16
aI20
aI24
aI6
aI28
aI354
aI20
aI192
aI170
aI169
aI349
aI323
aI352
aI0
aI338
aI24
aI0
aI15
aI306
aI250
aI27
aI186
aI19
aI181
aI181
aI110
aI270
aI262
aI119
aI194
aI0
aI199
aI195
aI330
aI344
aI332
aI320
aI331
aI1
aI301
aI204
aI230
aI110
aI322
aI215
aI195
aI214
aI47
aI325
aI340
aI339
aI343
aI11
aI54
aI221
aI351
aI179
aI185
aI275
aI52
aI22
aI39
aI206
aI45
aI29
aI339
aI0
aI126
aI354
aI1
aI341
aI331
aI26
aI270
aI270
aI8
aI18
aI218
aI340
aI333
aI345
aI167
aI25
aI35
aI335
aI278
aI22
aI42
aI342
aI0
aI116
aI90
aI324
aI7
aI354
aI0
aI347
aI349
aI29
aI353
aI190
aI206
aI9
aI337
aI290
aI343
aI329
aI20
aI181
aI342
aI16
aI7
aI14
aI174
aI274
aI6
aI349
aI15
aI194
aI343
aI6
aI125
aI339
aI140
aI167
aI333
aI270
aI330
aI237
aI11
aI181
aI25
aI0
aI350
aI31
aI32
aI347
aI240
aI147
aI71
aI305
aI308
aI350
aI356
aI314
aI259
aI12
aI24
aI4
aI9
aI0
aI232
aI9
aI5
aI0
aI5
aI1
aI20
aI186
aI185
aI185
aI11
aI319
aI162
aI352
aI0
aI148
aI78
aI66
aI13
aI14
aI340
aI339
aI327
aI5
aI87
aI339
aI334
aI247
aI284
aI346
aI0
aI268
aI262
aI282
aI256
aI196
aI10
aI270
aI0
aI5
aI348
aI335
aI338
aI112
aI29
aI65
aI338
aI106
aI207
aI340
aI355
aI351
aI107
aI212
aI240
aI77
aI13
aI346
aI19
aI10
aI338
aI274
aI328
aI309
aI335
aI320
aI334
aI3
aI0
aI0
aI356
aI0
aI0
aI0
aI25
aI300
aI332
aI305
aI336
aI340
aI280
aI345
aI352
aI324
aI22
aI203
aI347
aI347
aI322
aI342
aI347
aI32
aI18
aI326
aI341
aI48
aI334
aI20
aI344
aI137
aI18
aI112
aI349
aI331
aI345
aI345
aI345
aI299
aI338
aI7
aI350
aI33
aI328
aI343
aI112
aI0
aI334
aI19
aI319
aI354
aI347
aI22
aI19
aI316
aI16
aI329
aI10
aI62
aI13
aI42
aI212
aI338
aI169
aI340
aI230
aI12
aI67
aI332
aI38
aI337
aI13
aI339
aI328
aI337
aI7
aI29
aI37
aI323
aI355
aI12
aI5
aI14
aI9
aI348
aI6
aI146
aI326
aI18
aI16
aI26
aI351
aI345
aI341
aI11
aI343
aI343
aI18
aI352
aI1
aI20
aI18
aI34
aI349
aI178
aI20
aI321
aI41
aI5
aI17
aI338
aI94
aI169
aI337
aI0
aI325
aI32
aI31
aI156
aI212
aI91
aI188
aI334
aI208
aI69
aI338
aI334
aI53
aI342
aI350
aI336
aI190
aI341
aI0
aI341
aI330
aI24
aI20
aI0
aI328
aI17
aI35
aI341
aI19
aI25
aI172
aI15
aI311
aI11
aI346
aI348
aI112
aI145
aI310
aI337
aI179
aI321
aI193
aI1
aI330
aI340
aI353
aI331
aI149
aI15
aI21
aI334
aI10
aI56
aI247
aI190
aI328
aI342
aI345
aI20
aI342
aI342
aI18
aI340
aI292
aI343
aI52
aI212
aI21
aI28
aI36
aI339
aI144
aI17
aI313
aI342
aI11
aI332
aI338
aI330
aI14
aI348
aI34
aI33
aI347
aI333
aI341
aI174
aI21
aI335
aI194
aI337
aI331
aI0
aI335
aI336
aI16
aI344
aI333
aI349
aI346
aI330
aI16
aI349
aI322
aI341
aI193
aI11
aI309
aI347
aI92
aI21
aI13
aI338
aI330
aI347
aI329
aI333
aI342
aI56
aI26
aI345
aI170
aI23
aI335
aI342
aI28
aI345
aI323
aI188
aI16
aI31
aI26
aI7
aI337
aI354
aI325
aI197
aI25
aI23
aI1
aI28
aI339
aI21
aI27
aI22
aI28
aI5
aI19
aI341
aI56
aI340
aI11
aI338
aI338
aI57
aI152
aI333
aI22
aI39
aI318
aI339
aI27
aI25
aI26
aI44
aI30
aI8
aI159
aI343
aI24
aI325
aI346
aI336
aI340
aI19
aI44
aI318
aI16
aI1
aI17
aI30
aI337
aI11
aI340
aI180
aI271
aI179
aI69
aI332
aI93
aI16
aI332
aI51
aI21
aI51
aI109
aI26
aI320
aI344
aI346
aI348
aI326
aI333
aI337
aI31
aI15
aI292
aI350
aI34
aI15
aI327
aI0
aI342
aI32
aI188
aI345
aI19
aI9
aI20
aI150
aI19
aI14
aI342
aI336
aI341
aI332
aI19
aI19
aI33
aI329
aI329
aI71
aI349
aI149
aI353
aI5
aI40
aI28
aI32
aI142
aI1
aI27
aI115
aI339
aI297
aI122
aI181
aI8
aI0
aI336
aI76
aI330
aI15
aI5
aI320
aI30
aI29
aI349
aI203
aI19
aI204
aI341
aI191
aI345
aI351
aI32
aI352
aI337
aI326
aI173
aI4
aI341
aI26
aI10
aI40
aI354
aI0
aI201
aI40
aI321
aI327
aI342
aI335
aI140
aI20
aI17
aI342
aI23
aI321
aI13
aI326
aI331
aI196
aI339
aI9
aI339
aI10
aI1
aI328
aI15
aI24
aI35
aI328
aI336
aI14
aI13
aI272
aI343
aI335
aI345
aI1
aI247
aI333
aI335
aI343
aI27
aI68
aI338
aI343
aI345
aI62
aI326
aI336
aI1
aI85
aI10
aI337
aI333
aI346
aI15
aI333
aI29
aI31
aI327
aI180
aI15
aI37
aI29
aI35
aI25
aI346
aI352
aI52
aI333
aI349
aI19
aI324
aI141
aI349
aI325
aI0
aI332
aI17
aI212
aI310
aI336
aI18
aI63
aI20
aI14
aI343
aI6
aI297
aI328
aI347
aI302
aI338
aI25
aI26
aI45
aI13
aI188
aI166
aI0
aI350
aI22
aI37
aI338
aI335
aI8
aI12
aI18
aI337
aI21
aI73
aI318
aI14
aI334
aI0
aI307
aI20
aI5
aI331
aI342
aI346
aI193
aI25
aI9
aI347
aI179
aI30
aI338
aI322
aI350
aI8
aI16
aI189
aI12
aI339
aI10
aI1
aI30
aI317
aI332
aI332
aI9
aI329
aI27
aI46
aI324
aI335
aI16
aI12
aI181
aI12
aI343
aI338
aI189
aI200
aI340
aI336
aI348
aI338
aI336
aI31
aI329
aI7
aI150
aI160
aI20
aI17
aI11
aI14
aI326
aI28
aI23
aI0
aI328
aI335
aI216
aI340
aI242
aI349
aI333
aI192
aI13
aI194
aI335
aI323
aI247
aI26
aI25
aI12
aI347
aI322
aI339
aI18
aI337
aI314
aI24
aI179
aI322
aI24
aI344
aI339
aI98
aI346
aI210
aI191
aI13
aI326
aI165
aI155
aI337
aI247
aI345
aI330
aI12
aI344
aI346
aI56
aI178
aI196
aI27
aI19
aI338
aI19
aI322
aI159
aI42
aI292
aI312
aI336
aI332
aI340
aI1
aI344
aI337
aI178
aI341
aI322
aI18
aI336
aI64
aI346
aI16
aI330
aI18
aI247
aI346
aI0
aI338
aI26
aI336
aI338
aI347
aI38
aI31
aI1
aI21
aI5
aI316
aI35
aI336
aI213
aI335
aI335
aI339
aI21
aI326
aI17
aI195
aI340
aI23
aI341
aI8
aI321
aI5
aI319
aI0
aI337
aI24
aI41
aI192
aI15
aI157
aI14
aI334
aI335
aI33
aI23
aI344
aI178
aI27
aI36
aI34
aI159
aI353
aI150
aI24
aI56
aI349
aI249
aI29
aI1
aI22
aI331
aI329
aI341
aI340
aI148
aI340
aI323
aI21
aI22
aI336
aI325
aI210
aI44
aI181
aI10
aI178
aI40
aI326
aI350
aI30
aI28
aI336
aI0
aI320
aI85
aI205
aI38
aI330
aI1
aI215
aI2
aI336
aI335
aI35
aI13
aI346
aI321
aI157
aI340
aI20
aI353
aI20
aI331
aI42
aI26
aI13
aI338
aI338
aI337
aI181
aI343
aI15
aI55
aI0
aI32
aI324
aI21
aI343
aI67
aI1
aI327
aI343
aI340
aI25
aI322
aI28
aI19
aI19
aI24
aI165
aI340
aI338
aI341
aI343
aI158
aI338
aI34
aI332
aI146
aI247
aI228
aI329
aI320
aI39
aI21
aI20
aI337
aI49
aI329
aI9
aI33
aI21
aI303
aI344
aI165
aI178
aI195
aI331
aI26
aI333
aI349
aI21
aI339
aI47
aI19
aI324
aI179
aI326
aI344
aI338
aI38
aI221
aI354
aI25
aI329
aI7
aI224
aI339
aI330
aI349
aI20
aI335
aI345
aI351
aI350
aI11
aI35
aI15
aI141
aI17
aI16
aI333
aI160
aI24
aI23
aI178
aI346
aI178
aI344
aI15
aI329
aI0
aI1
aI32
aI32
aI41
aI38
aI172
aI21
aI66
aI341
aI337
aI172
aI323
aI335
aI13
aI350
aI270
aI9
aI31
aI346
aI0
aI345
aI351
aI351
aI344
aI342
aI343
aI24
aI327
aI142
aI351
aI17
aI325
aI40
aI13
aI23
aI16
aI31
aI196
aI11
aI35
aI336
aI11
aI15
aI32
aI341
aI325
aI1
aI344
aI138
aI21
aI342
aI24
aI210
aI332
aI0
aI335
aI330
aI15
aI331
aI111
aI19
aI27
aI318
aI141
aI242
aI14
aI27
aI333
aI117
aI8
aI4
aI179
aI337
aI341
aI14
aI339
aI10
aI339
aI1
aI147
aI32
aI331
aI19
aI31
aI17
aI159
aI185
aI24
aI343
aI123
aI339
aI17
aI28
aI318
aI173
aI331
aI18
aI329
aI339
aI0
aI330
aI1
aI322
aI225
aI35
aI10
aI37
aI121
aI335
aI344
aI335
aI340
aI337
aI85
aI142
aI348
aI0
aI30
aI341
aI29
aI41
aI29
aI19
aI329
aI24
aI313
aI35
aI6
aI5
aI13
aI11
aI351
aI338
aI342
aI181
aI28
aI340
aI37
aI337
aI27
aI339
aI336
aI34
aI20
aI32
aI12
aI346
aI93
aI330
aI50
aI333
aI348
aI341
aI336
aI34
aI37
aI20
aI6
aI0
aI339
aI348
aI344
aI10
aI178
aI118
aI12
aI336
aI348
aI5
aI26
aI22
aI22
aI19
aI0
aI180
aI327
aI339
aI330
aI1
aI19
aI21
aI23
aI172
aI168
aI42
aI339
aI322
aI295
aI187
aI21
aI35
aI20
aI6
aI342
aI0
aI23
aI348
aI0
aI167
aI323
aI1
aI181
aI7
aI348
aI23
aI237
aI127
aI147
aI348
aI334
aI329
aI21
aI342
aI6
aI339
aI248
aI92
aI296
aI335
aI330
aI30
aI340
aI324
aI350
aI337
aI349
aI1
aI30
aI10
aI343
aI25
aI336
aI335
aI311
aI53
aI329
aI315
aI347
aI329
aI337
aI337
aI340
aI339
aI327
aI346
aI18
aI347
aI336
aI204
aI13
aI21
aI1
aI148
aI23
aI209
aI6
aI8
aI272
aI34
aI22
aI335
aI339
aI14
aI23
aI312
aI9
aI160
aI355
asS'aeroplane'
p16
(lp17
I244
aI179
aI278
aI259
aI249
aI322
aI246
aI180
aI190
aI72
aI34
aI164
aI157
aI242
aI358
aI37
aI111
aI114
aI99
aI90
aI302
aI286
aI270
aI112
aI195
aI19
aI332
aI330
aI333
aI331
aI0
aI0
aI0
aI306
aI70
aI268
aI336
aI74
aI65
aI244
aI131
aI343
aI99
aI209
aI230
aI221
aI300
aI58
aI283
aI153
aI174
aI184
aI179
aI166
aI25
aI17
aI7
aI17
aI323
aI340
aI261
aI157
aI340
aI170
aI206
aI344
aI225
aI133
aI345
aI18
aI139
aI29
aI38
aI46
aI310
aI83
aI45
aI273
aI133
aI106
aI90
aI47
aI107
aI119
aI129
aI156
aI253
aI299
aI265
aI39
aI67
aI70
aI325
aI101
aI138
aI135
aI45
aI327
aI306
aI47
aI61
aI139
aI252
aI151
aI137
aI277
aI298
aI287
aI276
aI160
aI270
aI227
aI244
aI292
aI281
aI37
aI137
aI112
aI97
aI108
aI84
aI1
aI335
aI287
aI80
aI62
aI327
aI0
aI223
aI101
aI138
aI270
aI72
aI82
aI330
aI277
aI292
aI90
aI83
aI85
aI31
aI36
aI139
aI328
aI354
aI203
aI233
aI307
aI128
aI17
aI240
aI117
aI86
aI77
aI328
aI208
aI9
aI49
aI59
aI51
aI25
aI217
aI217
aI217
aI71
aI244
aI232
aI234
aI241
aI112
aI119
aI205
aI270
aI122
aI291
aI90
aI82
aI290
aI19
aI315
aI21
aI320
aI168
aI112
aI311
aI179
aI195
aI97
aI323
aI95
aI339
aI155
aI87
aI266
aI67
aI170
aI82
aI336
aI339
aI230
aI106
aI73
aI97
aI116
aI290
aI280
aI233
aI201
aI199
aI195
aI192
aI297
aI259
aI280
aI75
aI97
aI302
aI354
aI283
aI62
aI10
aI79
aI47
aI75
aI10
aI38
aI112
aI35
aI46
aI240
aI274
aI323
aI305
aI242
aI276
aI242
aI239
aI26
aI50
aI209
aI0
aI269
aI55
aI96
aI351
aI289
aI288
aI286
aI101
aI314
aI148
aI50
aI277
aI137
aI291
aI20
aI292
aI308
aI59
aI302
aI252
aI263
aI109
aI236
aI124
aI253
aI268
aI90
aI50
aI0
aI302
aI12
aI212
aI47
aI0
aI242
aI265
aI320
aI176
aI84
aI117
aI77
aI100
aI83
aI165
aI325
aI75
aI278
aI281
aI235
aI45
aI45
aI52
aI291
aI74
aI26
aI80
aI279
aI275
aI158
aI234
aI72
aI0
aI22
aI324
aI286
aI85
aI308
aI16
aI53
aI122
aI32
aI301
aI205
aI309
aI118
aI30
aI214
aI15
aI330
aI21
aI22
aI25
aI29
aI24
aI26
aI26
aI25
aI26
aI314
aI71
aI90
aI338
aI333
aI140
aI177
aI355
aI83
aI75
aI51
aI46
aI52
aI33
aI32
aI284
aI270
aI182
aI345
aI107
aI44
aI306
aI317
aI252
aI60
aI52
aI250
aI250
aI30
aI124
aI285
aI154
aI356
aI90
aI331
aI94
aI59
aI296
aI325
aI51
aI315
aI61
aI75
aI158
aI159
aI95
aI11
aI78
aI90
aI218
aI212
aI71
aI37
aI173
aI107
aI140
aI61
aI67
aI202
aI229
aI137
aI106
aI352
aI262
aI270
aI341
aI195
aI22
aI37
aI57
aI175
aI37
aI10
aI67
aI260
aI280
aI35
aI43
aI79
aI94
aI49
aI195
aI101
aI66
aI142
aI313
aI281
aI98
aI334
aI167
aI226
aI186
aI282
aI282
aI282
aI282
aI282
aI282
aI282
aI282
aI94
aI45
aI60
aI281
aI339
aI277
aI2
aI260
aI220
aI171
aI351
aI356
aI67
aI37
aI30
aI242
aI41
aI74
aI308
aI244
aI39
aI23
aI16
aI257
aI97
aI250
aI248
aI28
aI96
aI277
aI109
aI101
aI97
aI122
aI109
aI43
aI312
aI152
aI85
aI243
aI0
aI62
aI50
aI97
aI301
aI60
aI25
aI48
aI330
aI68
aI0
aI306
aI336
aI155
aI5
aI268
aI89
aI0
aI291
aI79
aI38
aI346
aI22
aI142
aI221
aI337
aI68
aI353
aI150
aI329
aI302
aI57
aI142
aI46
aI285
aI326
aI37
aI344
aI327
aI0
aI262
aI82
aI329
aI277
aI291
aI43
aI282
aI100
aI350
aI102
aI0
aI248
aI125
aI85
aI293
aI315
aI200
aI84
aI27
aI51
aI289
aI134
aI300
aI77
aI19
aI344
aI217
aI52
aI315
aI78
aI197
aI96
aI345
aI317
aI5
aI350
aI311
aI282
aI314
aI0
aI238
aI95
aI63
aI291
aI331
aI111
aI13
aI259
aI22
aI333
aI304
aI0
aI297
aI286
aI2
aI338
aI202
aI79
aI271
aI108
aI64
aI260
aI106
aI186
aI136
aI0
aI96
aI224
aI269
aI92
aI242
aI338
aI281
aI8
aI305
aI345
aI286
aI100
aI13
aI228
aI149
aI47
aI64
aI107
aI308
aI68
aI212
aI324
aI308
aI295
aI284
aI75
aI32
aI23
aI0
aI109
aI253
aI136
aI339
aI316
aI231
aI101
aI47
aI244
aI59
aI256
aI1
aI357
aI246
aI1
aI87
aI164
aI140
aI37
aI205
aI0
aI200
aI52
aI47
aI348
aI13
aI345
aI322
aI13
aI131
aI32
aI83
aI62
aI261
aI229
aI67
aI77
aI343
aI22
aI347
aI19
aI0
aI156
aI229
aI277
aI91
aI53
aI151
aI306
aI242
aI112
aI28
aI302
aI73
aI322
aI213
aI93
aI244
aI32
aI272
aI291
aI34
aI312
aI322
aI167
aI67
aI0
aI296
aI64
aI295
aI352
aI304
aI194
aI270
aI351
aI17
aI260
aI264
aI312
aI47
aI81
aI87
aI64
aI0
aI17
aI106
aI236
aI270
aI319
aI318
aI348
aI345
aI0
aI77
aI303
aI297
aI88
aI359
aI72
aI23
aI0
aI55
aI308
aI76
aI116
aI72
aI264
aI227
aI315
aI162
aI5
aI72
aI317
aI311
aI63
aI36
aI27
aI11
aI5
aI313
aI350
aI266
aI291
aI37
aI41
aI0
aI57
aI311
aI0
aI73
aI23
aI317
aI339
aI67
aI23
aI315
aI73
aI0
aI80
aI228
aI160
aI336
aI62
aI83
aI67
aI20
aI29
aI70
aI277
aI50
aI96
aI346
aI0
aI149
aI289
aI5
aI322
aI336
aI272
aI57
aI298
aI228
aI267
aI299
aI29
aI282
aI219
aI75
aI2
aI298
aI328
aI267
aI78
aI29
aI258
aI99
aI330
aI333
aI55
aI285
aI334
aI56
aI87
aI52
aI303
aI321
aI71
aI92
aI320
aI317
aI0
aI0
aI280
aI240
aI344
aI292
aI302
aI356
aI221
aI107
aI98
aI265
aI285
aI27
aI271
aI317
aI41
aI262
aI39
aI313
aI27
aI112
aI258
aI67
aI297
aI59
aI81
aI314
aI354
aI34
aI73
aI95
aI9
aI348
aI38
aI263
aI343
aI55
aI132
aI345
aI22
aI294
aI306
aI298
aI237
aI102
aI312
aI41
aI145
aI0
aI282
aI44
aI26
aI292
aI147
aI37
aI261
aI10
aI288
aI338
aI292
aI317
aI342
aI39
aI324
aI307
aI141
aI271
aI244
aI276
aI61
aI273
aI282
aI87
aI80
aI323
aI12
aI72
aI342
aI315
aI146
aI295
aI277
aI283
aI305
aI351
aI95
aI322
aI0
aI339
aI320
aI36
aI32
aI0
aI269
aI92
aI40
aI16
aI132
aI93
aI285
aI311
aI313
aI2
aI62
aI357
aI46
aI289
aI85
aI105
aI324
aI317
aI38
aI350
aI251
aI67
aI241
aI1
aI34
aI304
aI302
aI77
aI246
aI332
aI67
aI284
aI337
aI127
aI72
aI197
aI19
aI284
aI106
aI0
aI83
aI147
aI288
aI114
aI313
aI277
aI48
aI56
aI313
aI325
aI149
aI338
aI142
aI180
aI285
aI287
aI112
aI45
aI94
aI310
aI295
aI65
aI43
aI313
aI152
aI312
aI359
aI326
aI106
aI270
aI341
aI266
aI232
aI340
aI202
aI150
aI219
aI277
aI77
aI288
aI69
aI292
aI153
aI54
aI16
aI88
aI2
aI331
aI97
aI305
aI294
aI4
aI353
aI79
aI59
aI314
aI207
aI135
aI272
aI333
aI76
aI327
aI156
aI322
aI57
aI233
aI0
aI227
aI45
aI292
aI25
aI23
aI112
aI315
aI50
aI15
aI37
aI96
aI57
aI2
aI109
aI23
aI131
aI59
aI262
aI112
aI42
aI58
aI342
aI297
aI119
aI293
aI311
aI272
aI70
aI35
aI324
aI283
aI7
aI328
aI129
aI0
aI248
aI54
aI92
aI57
aI97
aI225
aI24
aI54
aI27
aI292
aI294
aI129
aI48
aI162
aI89
aI287
aI329
aI171
aI141
aI74
aI291
aI297
aI321
aI310
aI186
aI9
aI337
aI195
aI0
aI116
aI67
aI20
aI260
aI290
aI147
aI107
aI254
aI312
aI301
aI269
aI267
aI281
aI18
aI270
aI24
aI279
aI71
aI57
aI333
aI194
aI179
aI303
aI12
aI321
aI271
aI279
aI272
aI95
aI32
aI285
aI320
aI287
aI161
aI35
aI339
aI0
aI0
aI346
aI102
aI41
aI247
aI237
aI44
aI307
aI335
aI274
aI49
aI0
aI350
aI312
aI143
aI122
aI123
aI277
aI92
aI270
aI36
aI265
aI276
aI91
aI98
aI253
aI43
aI215
aI228
aI322
aI0
aI342
aI242
aI226
aI262
aI262
aI112
aI259
aI299
aI289
aI165
aI50
aI309
aI302
aI10
aI112
aI0
aI323
aI334
aI32
aI137
aI335
aI0
aI135
aI57
aI308
aI242
aI33
aI275
aI303
aI49
aI57
aI232
aI1
aI32
aI308
aI198
aI0
aI332
aI78
aI0
aI267
aI294
aI353
aI214
aI35
aI141
aI0
aI140
aI72
aI326
aI72
aI324
aI0
aI56
aI260
aI311
aI12
aI109
aI80
aI146
aI131
aI34
aI288
aI338
aI331
aI324
aI24
aI18
aI96
aI348
aI202
aI321
aI81
aI250
aI283
aI45
aI162
aI274
aI206
aI322
aI88
aI0
aI96
aI213
aI107
aI184
aI326
aI3
aI262
aI206
aI270
aI310
aI321
aI219
aI274
aI259
aI0
aI92
aI267
aI53
aI9
aI69
aI146
aI323
aI270
aI89
aI62
aI77
aI275
aI260
aI150
aI344
aI343
aI50
aI332
aI59
aI318
aI266
aI137
aI68
aI47
aI258
aI292
aI230
aI167
aI318
aI34
aI325
aI305
aI227
aI312
aI99
aI79
aI42
aI194
aI315
aI22
aI280
aI299
aI279
aI284
aI10
aI46
aI295
aI295
aI306
aI325
aI348
aI299
aI237
aI302
aI102
aI95
aI41
aI268
aI282
aI317
aI203
aI274
aI6
aI156
aI100
aI285
aI22
aI349
aI145
aI0
aI273
aI61
aI50
aI62
aI267
aI107
aI265
aI322
aI329
aI0
aI51
aI339
aI336
aI37
aI275
aI46
aI206
aI62
aI53
aI209
aI82
aI247
aI64
aI301
aI37
aI98
aI255
aI241
aI303
aI344
aI38
aI314
aI265
aI88
aI305
aI336
aI236
aI77
aI344
aI262
aI96
aI342
aI270
aI315
aI68
aI67
aI18
aI295
aI77
aI226
aI309
aI105
aI293
aI62
aI37
aI296
aI349
aI271
aI57
aI30
aI237
aI92
aI142
aI327
aI103
aI160
aI31
aI22
aI167
aI273
aI19
aI333
aI66
aI70
aI312
aI312
aI270
aI295
aI268
aI71
aI45
aI325
aI121
aI238
aI331
aI205
aI20
aI287
aI164
aI280
aI67
aI48
aI340
aI195
aI270
aI0
aI228
aI10
aI6
aI274
aI159
aI47
aI82
aI277
aI297
aI328
aI248
aI47
aI322
aI349
aI54
aI9
aI298
aI70
aI152
aI157
aI0
aI325
aI260
aI280
aI252
aI295
aI83
aI300
aI305
aI71
aI94
aI264
aI267
aI289
aI330
aI47
aI233
aI140
aI354
aI95
aI49
aI319
aI87
aI264
aI27
aI91
aI12
aI331
aI322
aI353
aI274
aI327
aI256
aI261
aI291
aI119
aI324
aI83
aI240
aI92
aI133
aI331
aI127
aI289
aI213
aI74
aI0
aI93
aI313
aI268
aI247
aI129
aI84
aI316
aI298
aI64
aI237
aI67
aI33
aI232
aI107
aI3
aI261
aI128
aI254
aI28
aI281
aI26
aI62
aI97
aI317
aI264
aI36
aI272
aI324
aI183
aI156
aI73
aI106
aI111
aI180
aI27
aI157
aI338
aI311
aI305
aI179
aI30
aI75
aI167
aI327
aI270
aI103
aI303
aI355
aI318
aI29
aI331
aI277
aI0
aI48
aI298
aI335
aI243
aI182
aI99
aI252
aI48
aI317
aI329
aI343
aI272
aI28
aI297
aI286
aI340
aI352
aI0
aI263
aI264
aI339
aI314
aI276
aI333
aI23
aI86
aI57
aI64
aI230
aI207
aI67
aI90
aI276
aI356
aI219
aI293
aI296
aI153
aI25
aI287
aI334
aI76
aI289
aI9
aI149
aI10
aI131
aI296
aI86
aI0
aI330
aI313
aI334
aI57
aI344
aI0
aI311
aI331
aI45
aI37
aI55
aI310
aI0
aI267
aI49
aI334
aI39
aI48
aI268
aI209
aI274
aI270
aI293
aI287
aI278
aI318
aI271
aI0
aI54
aI209
aI281
aI73
aI95
aI306
aI12
aI82
aI43
aI312
aI317
aI293
aI331
aI262
aI9
aI261
aI254
aI321
aI318
aI304
aI87
aI25
aI220
aI302
aI327
aI332
aI37
aI133
aI270
aI1
aI59
aI42
aI25
aI40
aI201
aI2
aI282
aI57
aI83
aI359
aI74
aI280
aI304
aI241
aI325
aI307
aI197
aI204
aI284
aI72
aI306
aI79
aI251
aI260
aI344
aI19
aI272
aI295
aI341
aI274
aI247
aI140
aI46
aI313
aI264
aI20
aI2
aI126
aI285
aI68
aI25
aI43
aI278
aI282
aI38
aI140
aI14
aI124
aI27
aI112
aI263
aI0
aI311
aI288
aI340
aI204
aI341
aI132
aI227
aI275
aI240
aI65
aI268
aI287
aI253
aI114
aI196
aI318
aI286
aI0
aI329
aI275
aI33
aI256
aI310
aI329
aI324
aI270
aI82
aI324
aI112
aI47
aI242
aI197
aI87
aI342
aI257
aI97
aI344
aI315
aI26
aI39
aI54
aI310
aI320
aI328
aI105
aI71
aI303
aI297
aI19
aI68
aI297
aI119
aI290
aI238
aI290
aI20
aI305
aI252
aI0
aI140
aI355
aI92
aI55
aI79
aI332
aI169
aI108
aI97
aI245
aI257
aI32
aI1
aI278
aI21
aI345
aI90
aI267
aI16
aI116
aI62
aI39
aI68
aI125
aI331
aI259
aI324
aI94
aI306
aI59
aI258
aI1
aI4
aI149
aI263
aI315
aI231
aI69
aI262
aI94
aI290
aI116
aI245
aI38
aI317
aI97
aI76
aI67
aI279
aI324
aI233
aI226
aI1
aI342
aI73
aI50
aI132
aI210
aI277
aI53
aI256
aI18
aI282
aI57
aI235
aI87
aI352
aI302
aI0
aI275
aI52
aI147
aI0
aI322
aI331
aI143
aI276
aI294
aI343
aI72
aI282
aI0
aI4
aI112
aI110
aI120
aI341
aI309
aI241
aI276
aI257
aI58
aI65
aI316
aI286
aI0
aI93
aI328
aI40
aI333
aI109
aI96
aI216
aI241
aI25
aI82
aI83
aI73
aI54
aI2
aI320
aI273
aI345
aI67
aI247
aI2
aI232
aI217
aI336
aI260
aI42
aI332
aI335
aI25
aI77
aI17
aI297
aI7
aI282
aI244
aI267
aI57
aI259
aI239
aI113
aI3
aI74
aI214
aI154
aI303
aI277
aI291
aI67
aI48
aI36
aI316
aI267
aI315
aI89
aI297
aI218
aI342
aI136
aI264
aI328
aI23
aI166
aI312
aI252
aI249
aI235
aI119
aI257
aI287
aI4
aI59
aI60
aI257
aI275
aI117
aI19
aI7
aI273
aI336
aI58
aI309
aI243
aI261
aI343
aI259
aI85
aI72
aI231
aI257
aI229
aI250
aI345
aI351
aI272
aI292
aI31
aI306
aI12
aI35
aI112
aI259
aI120
aI292
aI317
aI272
aI257
aI259
aI0
aI31
aI105
aI340
aI101
aI26
aI68
aI191
aI254
aI309
aI41
aI32
aI103
aI62
aI92
aI291
aI97
aI347
aI319
aI12
aI255
aI233
aI332
aI268
aI254
aI337
aI309
aI320
aI274
aI47
aI308
aI220
aI272
aI88
aI106
aI333
aI155
aI217
aI0
aI287
aI312
aI259
aI281
aI264
aI49
aI262
aI77
aI54
aI270
aI247
aI93
aI296
aI146
aI22
aI122
aI257
aI338
aI307
aI34
aI87
aI17
aI23
aI117
aI303
aI201
aI14
aI222
aI310
aI222
aI39
aI343
aI343
aI64
aI332
aI317
aI297
aI0
aI262
aI285
aI67
aI26
aI72
aI85
aI23
aI22
aI357
aI6
aI92
aI250
aI59
aI226
aI160
aI140
aI29
aI253
aI79
aI20
aI286
aI274
aI12
aI0
aI347
aI196
aI86
aI320
aI107
aI308
aI246
aI14
aI1
aI28
aI311
aI152
aI13
aI132
aI227
aI25
aI72
aI331
aI342
aI259
aI100
aI348
aI335
aI47
aI182
aI316
aI201
aI33
aI138
aI294
aI256
aI67
aI0
aI255
aI0
aI321
aI91
aI60
aI94
aI47
aI97
aI280
aI55
aI236
aI322
aI257
aI302
aI317
aI232
aI139
aI275
aI23
aI276
aI0
aI260
aI27
aI55
aI70
aI81
aI102
aI102
aI104
aI62
aI222
aI72
aI147
aI0
aI292
aI82
aI230
aI328
aI81
aI325
aI255
aI349
aI95
aI285
aI81
aI277
aI34
aI273
aI351
aI111
aI148
aI122
aI320
aI84
aI97
aI336
aI327
aI39
aI325
aI328
aI0
aI135
aI107
aI312
aI0
aI332
aI43
aI72
aI91
aI7
aI311
aI126
aI79
aI259
aI315
aI1
aI242
aI353
aI211
aI0
aI279
aI29
aI324
aI320
aI330
aI293
aI294
aI107
aI330
aI223
aI305
aI9
aI29
aI8
aI135
aI359
aI337
aI245
aI320
aI79
aI297
aI0
aI37
aI239
aI313
aI18
aI292
aI280
aI267
aI299
aI54
aI47
aI334
aI257
aI104
aI338
aI39
aI266
aI64
aI318
aI282
aI316
aI320
aI76
aI292
aI137
aI30
aI120
aI47
aI313
aI290
aI81
aI47
aI113
aI349
aI256
aI52
aI58
aI281
aI146
aI308
aI276
aI262
aI334
aI101
aI137
aI83
aI285
aI27
aI127
aI107
aI336
aI287
aI207
aI238
aI74
aI251
aI315
aI262
aI50
aI113
aI317
aI2
aI229
aI355
aI274
aI97
aI95
aI124
aI122
aI59
aI101
aI295
aI277
aI344
aI329
aI26
aI0
aI243
aI75
aI267
aI52
aI35
aI8
aI307
aI345
aI339
aI280
aI47
aI262
aI231
aI131
aI245
aI127
aI11
aI37
aI32
aI334
aI346
aI46
aI224
aI15
aI226
aI125
aI245
aI318
aI110
aI122
aI262
aI302
aI127
aI266
aI7
aI284
aI249
aI179
aI92
aI102
aI74
aI14
aI18
aI0
aI104
aI57
aI57
aI21
aI350
aI325
aI312
aI15
aI24
aI9
aI112
aI24
aI32
aI21
aI60
aI337
aI202
aI293
aI12
aI28
aI287
aI110
aI347
aI318
aI315
aI42
aI241
aI31
aI107
aI95
aI287
aI134
aI112
aI310
aI2
aI50
aI257
aI64
aI278
aI257
aI325
aI150
aI73
aI257
aI237
aI276
aI344
aI304
aI85
aI102
aI44
aI323
aI40
aI277
aI325
aI277
aI264
aI353
aI48
aI25
aI58
aI219
aI334
aI342
aI294
aI256
aI320
aI17
aI285
aI18
aI108
aI312
aI138
aI100
aI336
aI0
aI78
aI290
aI84
aI312
aI55
aI127
aI322
aI288
aI123
aI191
aI295
aI252
aI294
aI0
aI108
aI241
aI347
aI47
aI357
aI66
aI49
aI273
aI253
aI47
aI335
aI247
aI53
aI326
aI0
aI303
aI103
aI257
aI30
aI307
aI122
aI298
aI247
aI42
aI140
aI323
aI137
aI36
aI354
aI104
aI269
aI334
aI319
aI319
aI334
aI204
aI264
aI77
aI103
aI130
aI187
aI201
aI252
aI307
aI258
aI352
aI329
aI269
aI85
aI327
aI89
aI38
aI257
aI26
aI247
aI27
aI112
aI281
aI22
aI87
aI272
aI309
aI35
aI283
aI322
aI134
aI99
aI68
aI234
asS'dog'
p18
(lp19
sS'cat'
p20
(lp21
sS'person'
p22
(lp23
sS'train'
p24
(lp25
I10
aI257
aI339
aI42
aI350
aI310
aI304
aI323
aI36
aI353
aI32
aI325
aI341
aI355
aI3
aI90
aI16
aI13
aI307
aI353
aI230
aI7
aI329
aI54
aI17
aI12
aI9
aI47
aI14
aI88
aI88
aI19
aI149
aI28
aI15
aI160
aI90
aI154
aI345
aI2
aI344
aI353
aI349
aI292
aI9
aI346
aI24
aI201
aI328
aI356
aI124
aI36
aI39
aI335
aI4
aI337
aI0
aI186
aI13
aI342
aI345
aI7
aI37
aI9
aI8
aI137
aI249
aI354
aI16
aI9
aI343
aI107
aI350
aI21
aI174
aI6
aI0
aI0
aI5
aI160
aI341
aI6
aI355
aI321
aI22
aI251
aI280
aI338
aI22
aI32
aI7
aI14
aI314
aI354
aI351
aI206
aI0
aI88
aI57
aI41
aI36
aI8
aI205
aI152
aI115
aI132
aI277
aI54
aI0
aI342
aI355
aI23
aI13
aI5
aI9
aI10
aI41
aI110
aI54
aI114
aI39
aI55
aI336
aI354
aI330
aI339
aI268
aI270
aI213
aI3
aI7
aI21
aI355
aI9
aI341
aI345
aI19
aI65
aI17
aI77
aI18
aI45
aI122
aI12
aI116
aI356
aI96
aI5
aI27
aI192
aI97
aI82
aI7
aI18
aI6
aI5
aI20
aI187
aI347
aI9
aI290
aI4
aI355
aI354
aI335
aI37
aI34
aI16
aI20
aI338
aI199
aI25
aI354
aI90
aI211
aI313
aI151
aI72
aI73
aI4
aI343
aI5
aI5
aI5
aI21
aI213
aI212
aI34
aI28
aI43
aI349
aI4
aI331
aI349
aI117
aI32
aI17
aI229
aI323
aI14
aI19
aI180
aI344
aI67
aI3
aI256
aI21
aI23
aI190
aI7
aI332
aI353
aI350
aI6
aI317
aI340
aI297
aI25
aI175
aI242
aI10
aI27
aI322
aI342
aI157
aI272
aI352
aI37
aI125
aI349
aI212
aI25
aI18
aI352
aI48
aI344
aI85
aI43
aI0
aI354
aI2
aI6
aI30
aI270
aI166
aI171
aI16
aI24
aI6
aI15
aI81
aI354
aI350
aI172
aI343
aI95
aI125
aI350
aI83
aI90
aI238
aI175
aI193
aI6
aI15
aI138
aI6
aI163
aI22
aI335
aI351
aI36
aI88
aI335
aI10
aI354
aI355
aI3
aI346
aI331
aI36
aI8
aI9
aI345
aI20
aI45
aI65
aI336
aI140
aI43
aI201
aI78
aI7
aI80
aI353
aI6
aI20
aI343
aI201
aI248
aI166
aI164
aI337
aI330
aI354
aI339
aI267
aI20
aI341
aI27
aI166
aI319
aI347
aI346
aI25
aI8
aI347
aI36
aI356
aI161
aI95
aI282
aI21
aI330
aI330
aI90
aI356
aI12
aI313
aI326
aI19
aI350
aI3
aI24
aI7
aI356
aI20
aI348
aI347
aI16
aI15
aI7
aI3
aI6
aI8
aI345
aI353
aI355
aI5
aI351
aI4
aI6
aI1
aI14
aI251
aI354
aI334
aI6
aI355
aI67
aI351
aI352
aI339
aI6
aI348
aI15
aI17
aI14
aI117
aI8
aI309
aI350
aI14
aI9
aI355
aI7
aI353
aI344
aI20
aI343
aI6
aI350
aI4
aI3
aI345
aI8
aI358
aI20
aI355
aI7
aI13
aI16
aI11
aI8
aI333
aI25
aI328
aI11
aI9
aI14
aI342
aI352
aI341
aI356
aI344
aI346
aI20
aI22
aI353
aI350
aI335
aI26
aI19
aI353
aI20
aI342
aI342
aI17
aI323
aI351
aI340
aI353
aI356
aI347
aI356
aI22
aI77
aI3
aI348
aI7
aI339
aI11
aI18
aI14
aI346
aI16
aI345
aI345
aI20
aI11
aI292
aI352
aI346
aI30
aI28
aI354
aI353
aI23
aI12
aI8
aI338
aI3
aI0
aI32
aI16
aI27
aI16
aI10
aI333
aI0
aI344
aI355
aI17
aI20
aI346
aI8
aI338
aI26
aI18
aI8
aI353
aI19
aI359
aI23
aI350
aI349
aI14
aI341
aI3
aI32
aI13
aI20
aI344
aI19
aI29
aI334
aI10
aI320
aI11
aI18
aI333
aI16
aI348
aI332
aI15
aI0
aI322
aI336
aI27
aI3
aI3
aI347
aI343
aI329
aI5
aI356
aI342
aI351
aI338
aI6
aI351
aI346
aI354
aI346
aI16
aI331
aI340
aI337
aI23
aI292
aI338
aI7
aI350
aI30
aI348
aI349
aI353
aI347
aI11
aI5
aI11
aI20
aI10
aI14
aI37
aI11
aI3
aI15
aI3
aI332
aI345
aI341
aI36
aI7
aI12
aI7
aI332
aI349
aI347
aI119
aI13
aI352
aI314
aI28
aI311
aI345
aI353
aI0
aI15
aI16
aI355
aI324
aI17
aI11
aI343
aI19
aI347
aI353
aI6
aI14
aI313
aI347
aI2
aI25
aI325
aI9
aI355
aI0
aI350
aI0
aI4
aI18
aI13
aI347
aI354
aI21
aI0
aI345
aI13
aI9
aI317
aI351
aI8
aI5
aI12
aI345
aI340
aI354
aI343
aI9
aI343
aI9
aI17
aI268
aI20
aI353
aI341
aI353
aI11
aI353
aI347
aI14
aI9
aI4
aI354
aI13
aI8
aI6
aI10
aI348
aI333
aI7
aI4
aI353
aI7
aI6
aI346
aI343
aI353
aI29
aI0
aI356
aI12
aI6
aI241
aI17
aI26
aI3
aI19
aI25
aI353
aI341
aI356
aI348
aI6
aI354
aI326
aI322
aI22
aI16
aI6
aI4
aI335
aI342
aI15
aI332
aI352
aI26
aI20
aI0
aI345
aI330
aI345
aI18
aI19
aI344
aI15
aI344
aI10
aI2
aI354
aI351
aI19
aI312
aI25
aI5
aI344
aI346
aI343
aI350
aI343
aI8
aI11
aI352
aI356
aI346
aI320
aI21
aI19
aI4
aI0
aI345
aI83
aI356
aI348
aI26
aI339
aI356
aI5
aI347
aI2
aI354
aI347
aI345
aI356
aI27
aI5
aI3
aI12
aI2
aI355
aI5
aI12
aI9
aI356
aI330
aI322
aI342
aI353
aI4
aI340
aI10
aI351
aI359
aI350
aI324
aI11
aI353
aI349
aI327
aI355
aI356
aI352
aI15
aI22
aI322
aI5
aI356
aI13
aI14
aI5
aI10
aI12
aI345
aI8
aI5
aI19
aI17
aI13
aI11
aI350
aI350
aI15
aI319
aI4
aI9
aI26
aI21
aI352
aI346
aI341
aI22
aI328
aI353
aI19
aI0
aI20
aI5
aI352
aI343
aI349
aI9
aI353
aI20
aI29
aI23
aI349
aI340
aI28
aI11
aI7
aI8
aI6
aI344
aI0
aI327
aI0
aI326
aI8
aI343
aI5
aI19
aI331
aI354
aI19
aI2
aI11
aI4
aI355
aI7
aI14
aI344
aI7
aI22
aI12
aI7
aI4
aI43
aI74
aI209
aI0
aI77
aI330
aI5
aI340
aI356
aI9
aI10
aI340
aI5
aI352
aI353
aI345
aI9
aI11
aI347
aI317
aI11
aI25
aI351
aI23
aI8
aI352
aI8
aI337
aI6
aI322
aI333
aI1
aI353
aI21
aI347
aI24
aI352
aI13
aI5
aI336
aI7
aI354
aI10
aI353
aI348
aI352
aI346
aI322
aI16
aI12
aI345
aI330
aI355
aI6
aI36
aI338
aI334
aI333
aI19
aI6
aI35
aI342
aI6
aI342
aI344
aI52
aI346
aI0
aI353
aI342
aI3
aI347
aI7
aI32
aI4
aI9
aI346
aI345
aI334
aI6
aI345
aI354
aI3
aI14
aI334
aI6
aI18
aI25
aI337
aI344
aI328
aI345
aI0
aI2
aI0
aI164
aI345
aI15
aI142
aI17
aI18
aI356
aI5
aI349
aI12
aI21
aI3
aI13
aI26
aI353
aI11
aI345
aI18
aI343
aI346
aI4
aI23
aI33
aI356
aI16
aI350
aI349
aI15
aI335
aI84
aI342
aI4
aI348
aI355
aI3
aI17
aI5
aI6
aI347
aI6
aI26
aI6
aI38
aI322
aI12
aI351
aI117
aI354
aI21
aI13
aI12
aI16
aI350
aI349
aI347
aI27
aI348
aI200
aI26
aI40
aI12
aI332
aI22
aI17
aI356
aI342
aI20
aI6
aI5
aI4
aI356
aI10
aI5
aI14
aI331
aI2
aI275
aI347
aI8
aI0
aI287
aI329
aI15
aI8
aI6
aI9
aI344
aI49
aI9
aI341
aI6
aI97
aI11
aI353
aI24
aI6
aI345
aI2
aI352
aI11
aI21
aI27
aI343
aI339
aI37
aI319
aI348
aI338
aI72
aI354
aI52
aI356
aI6
aI335
aI297
aI25
aI355
aI16
aI8
aI350
aI6
aI326
aI3
aI215
aI10
aI336
aI19
aI347
aI7
aI332
aI343
aI344
aI9
aI349
aI19
aI347
aI353
aI15
aI331
aI341
aI12
aI1
aI6
aI354
aI28
aI12
aI31
aI45
aI354
aI7
aI52
aI7
aI349
aI3
aI21
aI12
aI339
aI3
aI14
aI327
aI351
aI18
aI7
aI355
aI9
aI0
aI352
aI77
aI2
aI339
aI345
aI4
aI13
aI355
aI346
aI12
aI13
aI12
aI203
aI266
aI5
aI17
aI338
aI325
aI346
aI22
aI0
aI112
aI6
aI338
aI6
aI5
aI0
aI7
aI329
aI0
aI32
aI18
aI30
aI345
aI339
aI42
aI350
aI14
aI354
aI345
aI343
aI10
aI350
aI343
aI355
aI14
aI351
aI14
aI331
aI353
aI14
aI349
aI6
aI353
aI347
aI346
aI356
aI347
aI6
aI7
aI344
aI353
aI332
aI19
aI14
aI30
aI349
aI341
aI3
aI39
aI18
aI30
aI347
aI3
aI340
aI9
aI5
aI353
aI352
aI6
aI11
aI354
aI17
aI352
aI356
aI13
aI12
aI348
aI353
aI354
aI13
aI354
aI339
aI345
aI32
aI42
aI332
aI355
aI0
aI356
aI339
aI356
aI9
aI352
aI8
aI349
aI13
aI7
aI355
aI341
aI13
aI31
aI22
aI356
aI351
aI3
aI13
aI20
aI19
aI292
aI353
aI347
aI16
aI344
aI349
aI348
aI351
aI43
aI342
aI347
aI2
aI353
aI13
aI351
aI6
aI17
aI6
aI3
aI8
aI5
aI0
aI8
aI3
aI351
aI353
aI347
aI343
aI31
aI339
aI284
aI3
aI307
aI47
aI5
aI23
aI23
aI25
aI348
aI14
aI5
aI13
aI3
aI9
aI341
aI8
aI0
aI27
aI7
aI348
aI353
aI356
aI326
aI353
aI28
aI263
aI46
aI352
aI36
aI350
aI15
aI342
aI350
aI9
aI18
aI351
aI339
aI346
aI353
aI348
aI40
aI342
aI0
aI354
aI331
aI340
aI24
aI9
aI18
aI324
aI8
aI343
aI346
aI19
aI350
aI18
aI13
aI356
aI15
aI38
aI8
aI23
aI345
aI1
aI353
aI353
aI359
aI13
aI342
aI340
aI52
aI340
aI0
aI29
aI47
aI342
aI8
aI346
aI344
aI352
aI351
aI353
aI11
aI0
aI346
aI11
aI355
aI347
aI13
aI4
aI0
aI338
aI356
aI354
aI318
aI44
aI352
aI5
aI31
aI106
aI353
aI325
aI353
aI347
aI13
aI20
aI352
aI345
aI6
aI353
aI312
aI350
aI15
aI5
aI355
aI349
aI12
aI24
aI6
aI347
aI8
aI242
aI342
aI4
aI67
aI344
aI14
aI12
aI0
aI343
aI356
aI47
aI9
aI333
aI352
aI47
aI350
aI347
aI7
aI0
aI18
aI351
aI338
aI14
aI17
aI255
aI16
aI0
aI327
aI353
aI353
aI17
aI352
aI277
aI8
aI353
aI12
aI37
aI2
aI345
aI33
aI348
aI26
aI4
aI352
aI355
aI343
aI24
aI67
aI354
aI8
aI334
aI0
aI7
aI5
aI333
aI342
aI317
aI355
aI343
aI322
aI0
aI5
aI7
aI4
aI17
aI11
aI6
aI310
aI2
aI0
aI5
aI4
aI28
aI15
aI17
aI13
aI354
aI22
aI12
aI349
aI322
aI336
aI27
aI3
aI0
aI20
aI335
aI352
aI5
aI15
aI327
aI18
aI350
aI352
aI6
aI356
aI346
aI356
aI14
aI3
aI351
aI9
aI353
aI351
aI15
aI12
aI13
aI330
aI5
aI344
aI341
aI10
aI333
aI0
aI3
aI348
aI346
aI62
aI345
aI17
aI351
aI350
aI11
aI345
aI14
aI314
aI354
aI37
aI342
aI18
aI14
aI12
aI195
aI350
aI353
aI1
aI343
aI21
aI352
aI32
aI59
aI326
aI353
aI25
aI117
aI356
aI351
aI15
aI11
aI10
aI26
aI4
aI0
aI6
aI338
aI26
aI8
aI345
aI334
aI12
aI9
aI328
aI343
aI7
aI352
aI0
aI0
aI351
aI7
aI353
aI343
aI330
aI21
aI350
aI3
aI19
aI332
aI352
aI4
aI312
aI347
aI347
aI4
aI343
aI11
aI351
aI353
aI342
aI5
aI6
aI341
aI340
aI347
aI20
aI24
aI353
aI322
aI0
aI135
aI353
aI11
aI7
aI22
aI6
aI12
aI20
aI0
aI117
aI352
aI18
aI7
aI7
aI5
aI20
aI3
aI353
aI324
aI13
aI340
aI15
aI347
aI24
aI24
aI18
aI354
aI17
aI17
aI5
aI321
aI350
aI4
aI267
aI356
aI0
aI9
aI355
aI11
aI18
aI29
aI2
aI341
aI5
aI354
aI351
aI2
aI331
aI350
aI353
aI329
aI297
aI348
aI13
aI8
aI344
aI49
aI353
aI12
aI339
aI40
aI33
aI349
aI327
aI35
aI339
aI334
aI346
aI15
aI11
aI334
aI15
aI344
aI356
aI347
aI353
aI336
aI351
aI0
aI349
aI292
aI350
aI18
aI337
aI339
aI11
aI6
aI290
aI354
aI14
aI351
aI2
aI354
aI4
aI12
aI4
aI12
aI343
aI6
asS'diningtable'
p26
(lp27
I5
aI0
aI1
aI290
aI19
aI355
aI350
aI10
aI0
aI60
aI267
aI78
aI3
aI0
aI280
aI345
aI276
aI100
aI351
aI0
aI0
aI325
aI55
aI76
aI35
aI354
aI36
aI66
aI50
aI112
aI0
aI50
aI4
aI75
aI0
aI0
aI282
aI317
aI0
aI322
aI95
aI344
aI346
aI51
aI355
aI289
aI57
aI3
aI15
aI12
aI52
aI58
aI0
aI45
aI5
aI0
aI332
aI0
aI0
aI274
aI0
aI0
aI296
aI255
aI38
aI37
aI255
aI300
aI0
aI0
aI316
aI320
aI309
aI89
aI30
aI340
aI299
aI0
aI335
aI63
aI280
aI4
aI0
aI2
aI0
aI284
aI0
aI0
aI78
aI8
aI325
aI1
aI0
aI281
aI0
aI355
aI20
aI28
aI285
aI1
aI0
aI310
aI0
aI90
aI9
aI13
aI345
aI330
aI9
aI269
aI259
aI9
aI50
aI290
aI0
aI0
aI0
aI94
aI79
aI47
aI318
aI305
aI335
aI248
aI0
aI11
aI302
aI40
aI22
aI15
aI4
aI305
aI288
aI0
aI325
aI90
aI0
aI45
aI2
aI2
aI4
aI3
aI60
aI27
aI0
aI309
aI330
aI5
aI15
aI58
aI320
aI0
aI284
aI92
aI33
aI20
aI0
aI35
aI322
aI0
aI78
aI0
aI5
aI281
aI0
aI0
aI4
aI358
aI5
aI82
aI0
aI0
aI335
aI74
aI0
aI297
aI0
aI271
aI70
aI0
aI90
aI65
aI310
aI297
aI0
aI60
aI7
aI61
aI92
aI16
aI76
aI52
aI79
aI13
aI30
aI355
aI0
aI93
aI0
aI276
aI317
aI30
aI286
aI67
aI335
aI283
aI320
aI88
aI310
aI95
aI91
aI288
aI0
aI0
aI93
aI0
aI8
aI265
aI14
aI0
aI295
aI0
aI13
aI325
aI338
aI330
aI68
aI10
aI7
aI10
aI10
aI6
aI347
aI0
aI5
aI83
aI10
aI0
aI273
aI265
aI55
aI5
aI70
aI0
aI66
aI326
aI50
aI278
aI0
aI34
aI50
aI355
aI75
aI343
aI35
aI296
aI83
aI40
aI91
aI0
aI345
aI300
aI90
aI10
aI5
aI281
aI54
aI0
aI0
aI0
aI16
aI0
aI12
aI71
aI285
aI0
aI295
aI0
aI300
aI94
aI314
aI0
aI86
aI345
aI0
aI301
aI354
aI282
aI89
aI45
aI59
aI293
aI294
aI15
aI275
aI295
aI352
aI24
aI22
aI88
aI0
aI90
aI335
aI77
aI335
aI62
aI89
aI309
aI0
aI92
aI10
aI300
aI6
aI295
aI0
aI75
aI86
aI83
aI79
aI79
aI95
aI274
aI8
aI10
aI260
aI243
aI249
aI0
aI336
aI2
aI320
aI40
aI90
aI305
aI0
aI0
aI294
aI330
aI92
aI45
aI91
aI299
aI297
aI0
aI0
aI350
aI345
aI0
aI30
aI90
aI26
aI0
aI0
aI0
aI0
aI2
aI282
aI90
aI300
aI324
aI277
aI90
aI317
aI2
aI22
aI0
aI75
aI350
aI0
aI305
aI5
aI304
aI83
aI0
aI323
aI296
aI17
aI5
aI17
aI1
aI289
aI1
aI21
aI50
aI0
aI337
aI49
aI0
aI309
aI289
aI37
aI52
aI303
aI0
aI16
aI88
aI38
aI90
aI0
aI270
aI0
aI0
aI56
aI268
aI85
aI295
aI303
aI51
aI44
aI36
aI62
aI2
aI31
aI9
aI52
aI0
aI277
aI50
aI62
aI0
aI19
aI0
aI66
aI38
aI0
aI8
aI295
aI12
aI69
aI0
aI55
aI36
aI329
aI5
aI54
aI330
aI1
aI31
aI330
aI0
aI0
aI51
aI0
aI58
aI30
aI62
aI0
aI25
aI304
aI0
aI268
aI313
aI307
aI333
aI0
aI0
aI0
aI32
aI43
aI9
aI295
aI21
aI0
aI335
aI41
aI330
aI15
aI2
aI83
aI37
aI92
aI39
aI98
aI6
aI3
aI298
aI15
aI98
aI28
aI0
aI304
aI5
aI60
aI324
aI324
aI15
aI89
aI321
aI65
aI62
aI330
aI87
aI12
aI57
aI0
aI281
aI54
aI32
aI338
aI302
aI37
aI311
aI77
aI44
aI0
aI90
aI259
aI40
aI314
aI42
aI313
aI48
aI309
aI325
aI22
aI19
aI344
aI52
aI3
aI35
aI65
aI40
aI15
aI63
aI27
aI329
aI346
aI7
aI57
aI1
aI29
aI10
aI335
aI0
aI1
aI9
aI64
aI53
aI83
aI0
aI330
aI79
aI333
aI302
aI270
aI0
aI332
aI9
aI0
aI56
aI337
aI13
aI0
aI85
aI51
aI321
aI269
aI347
aI340
aI32
aI55
aI0
aI311
aI89
aI31
aI64
aI29
aI29
aI85
aI275
aI299
aI28
aI58
aI269
aI73
aI317
aI304
aI297
aI48
aI0
aI43
aI69
aI35
aI46
aI0
aI309
aI325
aI92
aI0
aI58
aI305
aI0
aI335
aI15
aI19
aI40
aI48
aI0
aI88
aI48
aI1
aI69
aI273
aI0
aI87
aI0
aI76
aI42
aI49
aI0
aI63
aI321
aI0
aI104
aI52
aI0
aI268
aI298
aI0
aI50
aI25
aI41
aI287
aI0
aI51
aI68
aI317
aI13
aI302
aI18
aI322
aI291
aI328
aI72
aI38
aI333
aI37
aI315
aI0
aI57
aI0
aI0
aI0
aI328
aI0
aI80
aI57
aI277
aI82
aI25
aI291
aI338
aI0
aI334
aI37
aI0
aI302
aI50
aI54
aI49
aI314
aI0
aI54
aI2
aI328
aI68
aI52
aI17
aI0
aI87
aI2
aI25
aI320
aI60
aI0
aI292
aI46
aI88
aI48
aI259
aI70
aI292
aI0
aI0
aI288
aI57
aI303
aI323
aI333
aI13
aI329
aI74
aI0
aI337
aI40
aI314
aI0
aI336
aI86
aI347
aI0
aI340
aI0
aI0
aI0
aI19
aI77
aI0
aI0
aI0
aI73
aI55
aI4
aI346
aI0
aI48
aI0
aI39
aI351
aI44
aI290
aI0
aI331
aI0
aI0
aI70
aI314
aI12
aI22
aI68
aI37
aI6
aI55
aI309
aI300
aI311
aI349
aI38
aI0
aI0
aI45
aI301
aI0
aI316
aI3
aI28
aI40
aI86
aI0
aI295
aI26
aI66
aI0
aI81
aI64
aI50
aI33
aI318
aI322
aI333
aI24
aI1
aI10
aI285
aI90
aI11
aI305
aI28
aI39
aI6
aI0
aI2
aI87
aI76
aI333
aI0
aI78
aI330
aI2
aI63
aI26
aI312
aI13
aI68
aI90
aI0
aI61
aI25
aI23
aI329
aI308
aI0
aI319
aI321
aI322
aI0
aI338
aI84
aI292
aI305
aI0
aI24
aI350
aI281
aI0
aI296
aI0
aI75
aI32
aI286
aI0
aI5
aI68
aI2
aI40
aI10
aI50
aI59
aI289
aI340
aI331
aI0
aI37
aI330
aI317
aI55
aI1
aI12
aI37
aI2
aI22
aI350
aI281
aI49
aI324
aI274
aI313
aI335
aI76
aI29
aI68
aI325
aI287
aI295
aI305
aI352
aI68
aI273
aI291
aI343
aI271
aI295
aI0
aI290
aI348
aI47
aI38
aI70
aI317
aI27
aI269
aI82
aI326
aI288
aI0
aI324
aI54
aI319
aI304
aI54
aI3
aI0
aI2
aI49
aI0
aI310
aI25
aI75
aI45
aI315
aI0
aI303
aI312
aI28
aI97
aI319
aI313
aI32
aI331
aI0
aI294
aI0
aI301
aI271
aI77
aI0
aI51
aI292
aI53
aI344
aI46
aI0
aI326
aI279
aI0
aI308
aI271
aI0
aI0
aI0
aI55
aI312
aI91
aI270
aI53
aI88
aI40
aI1
aI62
aI331
aI277
aI77
aI21
aI293
aI49
aI70
aI0
aI268
aI320
aI12
aI2
aI327
aI0
aI4
aI296
aI49
aI292
aI0
aI296
aI70
aI88
aI56
aI47
aI311
aI57
aI34
aI270
aI84
aI316
aI317
aI33
aI338
aI32
aI62
aI0
aI48
aI0
aI293
aI287
aI322
aI309
aI292
aI289
aI9
aI14
aI290
aI0
aI0
aI58
aI18
aI322
aI310
aI59
aI350
aI22
aI42
aI329
aI2
aI7
aI0
aI25
aI29
aI323
aI331
aI62
aI89
aI316
aI294
aI48
aI0
aI62
aI0
aI326
aI339
aI0
aI2
aI25
aI0
aI327
aI0
aI351
aI88
aI328
aI325
aI297
aI329
aI330
aI279
aI31
aI292
aI54
aI0
aI10
aI309
aI0
aI56
aI0
aI2
aI42
aI310
aI280
aI62
aI37
aI1
aI58
aI74
aI11
aI318
aI337
aI91
aI285
aI300
aI15
aI274
aI269
aI0
aI292
aI267
aI0
aI3
aI60
aI307
aI281
aI335
aI303
aI60
aI0
aI313
aI12
aI268
aI300
aI293
aI0
aI284
aI0
aI0
aI0
aI88
aI42
aI279
aI0
aI47
aI56
aI49
aI309
aI311
aI2
aI343
aI315
aI0
aI50
aI30
aI324
aI85
aI54
aI7
aI301
aI28
aI55
aI346
aI299
aI0
aI0
aI266
aI305
aI81
aI0
aI48
aI22
aI85
aI52
aI0
aI56
aI324
aI0
aI55
aI0
aI0
aI337
aI338
aI353
aI42
aI46
aI1
aI20
aI91
aI323
aI265
aI306
aI300
aI51
aI36
aI9
aI21
aI0
aI17
aI9
aI294
aI268
aI294
aI88
aI0
aI58
aI318
aI276
aI338
aI277
aI49
aI0
aI90
aI89
aI0
aI0
aI26
aI55
aI2
aI328
aI0
aI89
aI2
aI311
aI271
aI19
aI35
aI0
aI45
aI294
aI42
aI333
aI0
aI270
aI271
aI17
aI17
aI60
aI344
aI28
aI321
aI343
aI38
aI10
aI292
aI93
aI1
aI57
aI26
aI0
aI351
aI62
aI17
aI64
aI305
aI0
aI0
aI48
aI324
aI326
aI312
aI13
aI296
aI3
aI38
aI267
aI0
aI91
aI312
aI85
aI50
aI56
aI325
aI269
aI41
aI303
aI86
aI270
aI63
aI0
aI37
aI302
aI48
aI316
aI328
aI84
aI55
aI318
aI55
aI348
aI315
aI3
aI12
aI21
aI1
aI3
aI0
aI342
aI284
aI69
aI0
aI339
aI0
aI41
aI22
aI0
aI357
aI2
aI59
aI317
aI23
aI44
aI54
aI0
aI70
aI36
aI331
aI0
aI89
aI0
aI2
aI58
aI35
aI71
aI325
aI264
aI299
aI0
aI301
aI1
aI20
aI1
aI0
aI0
aI0
aI0
aI1
aI0
aI0
aI275
aI295
aI306
aI65
aI49
aI38
aI315
aI24
aI42
aI90
aI78
aI329
aI0
aI92
aI359
aI37
aI291
aI0
aI271
aI43
aI5
aI270
aI58
aI332
aI2
aI322
aI305
aI300
aI58
aI25
aI346
aI305
aI50
aI80
aI42
aI25
aI11
aI321
aI1
aI46
aI32
aI0
aI16
aI87
aI73
aI341
aI283
aI0
aI41
aI15
aI322
aI0
aI62
aI321
aI57
aI287
aI4
aI87
aI13
aI0
aI47
aI279
aI82
aI348
aI318
aI265
aI348
aI0
aI87
aI42
aI0
aI33
aI0
aI2
aI286
aI22
aI315
aI0
aI319
aI332
aI87
aI315
aI0
aI332
aI34
aI0
aI332
aI301
aI34
aI345
aI297
aI318
aI19
aI60
aI318
aI45
aI1
aI330
aI323
aI88
aI268
aI296
aI89
aI52
aI331
aI58
aI278
aI12
aI0
aI49
aI92
aI0
aI45
aI1
aI2
aI19
aI31
aI290
aI44
aI45
aI27
aI306
aI7
aI49
aI50
aI328
aI30
aI329
aI349
aI77
aI288
aI307
aI46
aI2
aI66
aI0
aI327
aI0
aI318
aI0
aI88
aI280
aI320
aI348
aI281
aI50
aI302
aI280
aI7
aI0
aI0
aI20
aI0
aI7
aI4
aI58
aI0
aI26
aI0
aI328
aI53
aI0
aI88
aI30
aI0
aI38
aI78
aI1
aI0
aI350
aI68
aI43
aI91
aI0
aI0
aI43
aI0
aI27
aI55
aI22
aI1
aI96
aI56
aI78
aI72
aI40
aI0
aI0
aI272
aI48
aI299
aI46
aI352
aI51
aI55
aI0
aI19
aI297
aI85
aI64
aI39
aI0
aI274
aI29
aI57
aI63
aI321
aI9
aI86
aI269
aI71
aI286
aI277
aI3
aI27
aI328
aI0
aI322
aI0
aI81
aI59
aI308
aI305
aI291
aI0
aI322
aI89
aI12
aI349
aI25
aI0
aI47
aI0
aI349
aI25
aI22
aI0
aI52
aI323
aI79
aI276
aI283
aI22
aI0
aI267
aI324
aI49
aI0
aI55
aI316
aI288
aI0
aI0
aI75
aI50
aI0
aI0
aI298
aI300
aI62
aI43
aI0
aI86
aI293
aI27
aI1
aI295
aI287
aI302
aI62
aI316
aI70
aI0
aI0
aI35
aI302
aI0
aI42
aI269
aI306
aI58
aI94
aI3
aI0
aI293
aI72
aI50
aI309
aI59
aI337
aI323
aI319
aI271
aI310
aI315
aI48
aI305
aI0
aI299
aI318
aI0
aI269
aI334
aI345
aI56
aI284
aI338
aI4
aI271
aI0
aI61
aI95
aI321
aI10
aI0
aI21
aI308
aI269
aI67
aI3
aI337
aI337
aI101
aI0
aI90
aI90
aI87
aI21
aI1
aI36
aI283
aI2
aI269
aI0
aI33
aI0
aI4
aI38
aI291
aI312
aI63
aI39
aI325
aI67
aI268
aI47
aI22
aI291
aI0
aI275
aI271
aI18
aI0
aI0
aI65
aI32
aI3
aI329
aI42
aI284
aI37
aI41
aI41
aI11
aI70
aI0
aI0
aI268
aI0
aI274
aI68
aI282
aI336
aI53
aI40
aI301
aI334
aI0
aI340
aI47
aI51
aI270
aI56
aI60
aI54
aI35
aI297
aI274
aI39
aI322
aI332
aI35
aI327
aI335
aI294
aI44
aI1
aI45
aI0
aI0
aI76
aI338
aI4
aI272
aI33
aI325
aI26
aI63
aI90
aI95
aI0
aI48
aI33
aI306
aI0
aI69
aI0
aI274
aI0
aI53
aI0
aI0
aI344
aI30
aI285
aI324
aI19
aI11
aI319
aI59
aI90
aI323
aI0
aI10
aI1
aI94
aI14
aI85
aI317
aI329
aI304
aI309
aI5
aI80
aI349
aI315
aI13
aI88
aI1
aI39
aI64
aI0
aI0
aI0
aI291
aI268
aI17
aI310
aI65
aI272
aI80
aI0
aI312
aI0
aI48
aI56
aI22
aI285
aI0
aI262
aI40
aI0
aI289
aI0
aI88
aI20
aI336
aI0
aI40
aI329
aI42
aI89
aI0
aI257
aI55
aI351
aI0
aI0
aI22
aI0
aI270
aI50
aI0
aI0
aI2
aI77
aI325
aI0
aI139
aI52
aI269
aI0
aI1
aI348
aI310
aI341
aI313
aI40
aI326
aI310
aI40
aI66
aI8
aI5
aI50
aI37
aI331
aI296
aI330
aI0
aI306
aI27
aI31
aI53
aI62
aI2
aI90
aI18
aI283
aI0
aI79
aI0
aI287
aI0
aI331
aI0
aI94
aI2
aI59
aI31
aI1
aI0
aI267
aI4
aI0
aI282
aI0
aI337
aI31
aI56
aI330
aI331
aI52
aI71
aI335
aI87
aI0
aI2
aI0
aI85
aI47
aI0
aI32
aI23
aI0
aI0
aI0
aI36
aI42
aI294
aI320
aI0
aI34
aI336
aI33
aI0
aI279
aI305
aI81
aI38
aI88
aI0
aI273
aI287
aI17
aI317
aI4
aI0
aI0
aI32
aI47
aI317
aI36
aI288
aI34
aI0
aI276
aI30
aI345
aI2
aI0
aI264
aI306
aI42
aI45
aI0
aI0
aI81
aI13
aI0
aI272
aI343
aI36
aI311
aI0
aI310
aI0
aI309
aI0
aI58
aI323
aI75
aI0
aI346
aI0
aI0
aI58
aI0
aI311
aI319
aI47
aI1
aI326
aI347
aI15
aI0
aI0
aI4
aI37
aI345
aI340
aI347
aI274
aI2
aI71
aI317
aI0
aI0
aI344
aI69
aI49
aI0
aI42
aI2
aI92
aI46
aI256
aI0
aI58
aI322
aI45
aI338
aI0
aI306
aI76
aI303
aI20
aI0
aI2
aI50
aI85
aI0
aI0
aI282
aI312
aI325
aI330
aI287
aI10
aI72
aI0
aI0
aI293
aI307
aI270
aI0
aI54
aI0
aI28
aI82
aI267
aI325
aI321
aI16
aI0
aI312
aI0
aI46
aI3
aI19
aI2
aI319
aI29
aI0
aI0
aI316
aI88
aI46
aI79
aI10
aI75
aI4
aI26
aI329
aI0
aI61
aI0
aI0
aI285
aI15
aI298
aI87
aI0
aI324
aI31
aI333
aI36
aI281
aI82
aI0
aI0
aI326
aI318
aI335
aI36
aI38
aI42
aI352
aI335
aI314
aI296
aI0
aI285
aI6
aI0
aI347
aI327
aI0
aI44
aI0
aI0
aI344
aI0
aI310
aI0
aI0
aI59
aI3
aI332
aI2
aI31
aI48
aI276
aI98
aI16
aI78
aI57
aI271
aI328
aI91
aI275
aI59
aI305
aI0
aI78
aI277
aI88
aI1
aI0
aI90
aI299
aI89
aI308
aI42
aI49
aI25
aI3
aI329
aI0
aI0
aI269
aI315
aI52
aI281
aI40
aI89
aI3
aI62
aI312
aI325
aI1
aI283
aI343
aI0
aI35
aI51
aI90
aI3
aI339
aI40
aI291
aI3
aI22
aI14
aI0
aI321
aI277
aI0
aI299
aI0
aI341
aI1
aI315
aI91
aI30
aI59
aI42
aI291
aI23
aI282
aI330
aI0
aI91
aI47
aI47
aI0
aI17
aI0
aI44
aI303
aI2
aI95
aI326
aI17
aI321
aI0
aI39
aI318
aI0
aI316
aI72
aI21
aI270
aI0
aI70
aI329
aI333
aI335
aI66
aI0
aI50
aI78
aI33
aI6
aI47
aI88
aI50
aI64
aI0
aI57
aI3
aI63
aI0
aI272
aI340
aI304
aI290
aI0
aI307
aI342
aI0
aI336
aI74
aI92
aI0
aI310
aI307
aI0
aI16
aI269
aI39
aI52
aI57
aI30
aI335
aI0
aI298
aI1
aI23
aI92
aI0
aI27
aI283
aI0
aI338
aI308
aI51
aI61
aI0
aI305
aI307
aI33
aI57
aI36
aI37
aI279
aI2
aI46
aI34
aI324
aI326
aI306
aI324
aI81
aI0
aI52
aI0
aI329
aI0
aI24
aI258
aI0
aI344
aI89
aI64
aI0
aI23
aI85
aI54
aI10
aI36
aI0
aI38
aI288
aI334
aI60
aI294
aI302
aI265
aI307
aI0
aI316
aI3
aI0
aI359
aI323
aI269
aI48
aI22
aI0
aI0
aI30
aI342
aI22
aI71
aI297
aI0
aI52
aI21
aI316
aI0
aI0
aI0
aI345
aI10
aI309
aI0
aI325
aI0
aI25
aI62
aI295
aI345
aI0
aI0
aI346
aI0
aI309
aI0
aI70
aI55
aI34
aI0
aI1
aI20
aI0
aI60
aI289
aI0
aI0
aI88
aI49
aI0
aI0
aI0
aI0
aI326
aI303
aI306
aI300
aI316
aI332
aI2
aI30
aI0
aI46
aI85
aI83
aI0
aI43
aI275
aI0
aI324
aI326
aI313
aI331
aI333
aI1
aI37
aI1
aI30
aI69
aI312
aI0
aI300
aI24
aI281
aI302
aI67
aI1
aI307
aI340
aI317
aI32
aI0
aI0
aI0
aI28
aI52
aI281
aI283
aI339
aI92
aI48
aI48
aI299
aI332
aI0
aI55
aI44
aI0
aI324
aI22
aI0
aI2
aI0
aI90
aI288
aI1
aI63
aI23
aI311
aI39
aI64
aI0
aI24
aI263
aI2
aI59
aI301
aI0
aI0
aI0
aI0
aI47
aI265
aI72
aI17
aI48
aI24
aI0
aI321
aI82
aI0
aI349
aI12
aI267
aI306
aI3
aI286
aI274
aI325
aI0
aI15
aI0
aI268
aI0
aI71
aI324
aI35
aI325
aI5
aI65
aI0
aI322
aI40
aI0
aI298
aI68
aI19
aI10
aI305
aI0
aI305
aI297
aI308
aI339
aI0
aI317
aI328
aI338
aI56
aI295
aI0
aI58
aI304
aI62
aI0
aI344
aI334
aI279
aI339
aI0
aI0
aI41
aI332
aI307
aI40
aI71
aI60
aI0
aI0
aI0
aI50
aI1
aI37
aI50
aI332
aI291
aI297
aI43
aI0
aI328
aI0
aI65
aI49
aI23
aI325
aI10
aI16
aI68
aI4
aI320
aI34
aI89
aI24
aI33
aI48
aI317
aI269
aI44
aI268
aI0
aI295
aI294
aI41
aI63
aI267
aI270
aI31
aI10
aI274
aI282
aI35
aI43
aI1
aI0
aI333
aI55
aI0
aI2
aI24
aI322
aI24
aI43
aI0
aI0
aI27
aI268
aI318
aI0
aI301
aI0
aI11
aI330
aI0
aI341
aI1
aI38
aI0
aI335
aI270
aI0
aI47
aI6
aI40
aI269
aI0
aI308
aI36
aI64
aI0
aI277
aI64
aI30
aI59
aI53
aI85
aI88
aI332
aI320
aI90
aI9
aI19
aI272
aI96
aI22
aI330
aI32
aI307
aI322
aI0
aI0
aI6
aI66
aI0
aI9
aI54
aI0
aI328
aI74
aI26
aI20
aI31
aI356
aI40
aI337
aI68
aI314
aI325
aI75
aI330
aI273
aI67
aI323
aI42
aI311
aI296
aI0
aI316
aI0
aI12
aI42
aI36
aI15
aI50
aI58
aI7
aI332
aI0
aI312
aI331
aI0
aI70
aI2
aI16
aI277
aI9
aI5
aI1
aI333
aI272
aI42
aI60
aI0
aI0
aI330
aI0
aI318
aI18
aI326
aI0
aI70
aI14
aI30
aI298
aI51
aI77
aI56
aI86
aI305
aI97
aI343
aI300
aI44
aI288
aI0
aI46
aI61
aI0
aI1
aI303
aI296
aI0
aI0
aI35
aI0
aI0
aI274
aI0
aI71
aI48
aI5
aI13
aI302
aI30
aI88
aI340
aI2
aI328
aI321
aI73
aI33
aI354
aI300
aI290
aI301
aI338
aI0
aI68
aI9
aI90
aI270
aI337
aI272
aI51
aI268
aI292
aI0
aI318
aI0
aI308
aI2
aI307
aI308
aI306
aI58
aI34
aI293
aI57
aI40
aI334
aI10
aI34
aI1
aI272
aI0
aI270
aI298
aI25
aI277
aI318
aI327
aI328
aI285
aI317
aI81
aI308
aI48
aI266
aI11
aI319
aI314
aI1
aI297
aI67
aI67
aI0
aI35
aI3
aI10
aI339
aI86
aI338
aI43
aI1
aI316
aI330
aI62
aI292
aI30
aI39
aI0
aI319
aI19
aI0
aI311
aI294
aI54
aI35
asS'bottle'
p28
(lp29
I22
aI0
aI0
aI0
aI0
aI2
aI0
aI0
aI0
aI22
aI7
aI0
aI0
aI1
aI0
aI1
aI12
aI0
aI0
aI0
aI0
aI0
aI0
aI0
aI0
aI0
aI14
aI0
aI22
aI0
aI4
aI22
aI0
aI0
aI0
aI0
aI0
aI0
aI2
aI5
aI0
aI6
aI0
aI0
aI2
aI0
aI18
aI4
aI5
aI0
aI0
aI3
aI1
aI1
aI11
aI1
aI0
aI22
aI2
aI2
aI3
aI0
aI0
aI0
aI0
aI0
aI0
aI0
aI0
aI0
aI0
aI0
aI0
aI2
aI0
aI0
aI0
aI0
aI0
aI0
aI0
aI0
aI0
aI0
aI0
aI0
aI0
aI0
aI0
aI0
aI2
aI10
aI0
aI0
aI0
aI22
aI22
aI0
aI0
aI0
aI1
aI6
aI0
aI0
aI0
aI0
aI0
aI0
aI0
aI0
aI0
aI0
aI0
aI0
aI0
aI0
aI0
aI0
aI0
aI2
aI0
aI0
aI0
aI3
aI0
aI0
aI12
aI0
aI0
aI0
aI10
aI0
aI5
aI0
aI0
aI0
aI0
aI0
aI0
aI2
aI0
aI0
aI0
aI0
aI0
aI0
aI0
aI6
aI13
aI0
aI0
aI0
aI0
aI0
aI0
aI0
aI0
aI0
aI0
aI0
aI2
aI0
aI0
aI0
aI0
aI0
aI13
aI0
aI0
aI0
aI0
aI0
aI0
aI0
aI0
aI0
aI0
aI0
aI0
aI0
aI0
aI0
aI1
aI0
aI0
aI0
aI14
aI14
aI10
aI13
aI4
aI0
aI0
aI2
aI10
aI5
aI0
aI0
aI0
aI0
aI0
aI0
aI0
aI0
aI14
aI21
aI20
aI2
aI0
aI15
aI11
aI0
aI0
aI3
aI22
aI0
aI0
aI0
aI0
aI11
aI0
aI12
aI0
aI0
aI0
aI0
aI0
aI0
aI0
aI0
aI0
aI0
aI22
aI22
aI0
aI9
aI0
aI0
aI0
aI2
aI0
aI2
aI0
aI0
aI0
aI2
aI0
aI0
aI1
aI0
aI0
aI0
aI0
aI0
aI0
aI0
aI0
aI0
aI0
aI3
aI0
aI0
aI21
aI0
aI0
aI0
aI0
aI1
aI0
aI0
aI0
aI0
aI7
aI0
aI0
aI0
aI0
aI11
aI0
aI0
aI22
aI0
aI0
aI2
aI0
aI0
aI11
aI0
aI0
aI0
aI0
aI0
aI5
aI5
aI0
aI0
aI0
aI22
aI0
aI22
aI0
aI0
aI0
aI0
aI0
aI0
aI0
aI0
aI0
aI12
aI0
aI2
aI8
aI0
aI15
aI2
aI0
aI11
aI0
aI3
aI17
aI0
aI0
aI0
aI0
aI10
aI2
aI0
aI0
aI0
aI0
aI0
aI0
aI3
aI7
aI0
aI0
aI0
aI4
aI0
aI0
aI0
aI0
aI0
aI7
aI0
aI0
aI0
aI0
aI0
aI0
aI0
aI0
aI0
aI0
aI0
aI0
aI0
aI3
aI17
aI0
aI0
aI4
aI0
aI1
aI5
aI0
aI0
aI0
aI0
aI0
aI0
aI0
aI0
aI0
aI7
aI0
aI0
aI0
aI0
aI1
aI0
aI0
aI1
aI11
aI0
aI0
aI0
aI0
aI0
aI2
aI22
aI0
aI0
aI0
aI0
aI0
aI0
aI0
aI0
aI0
aI0
aI0
aI0
aI0
aI0
aI0
aI0
aI5
aI5
aI0
aI0
aI0
aI0
aI0
aI0
aI0
aI0
aI0
aI3
aI0
aI0
aI1
aI8
aI10
aI12
aI0
aI0
aI0
aI0
aI0
aI18
aI9
aI0
aI3
aI0
aI0
aI0
aI8
aI0
aI0
aI0
aI0
aI0
aI0
aI5
aI8
aI0
aI0
aI0
aI0
aI1
aI0
aI0
aI0
aI0
aI11
aI2
aI0
aI14
aI0
aI11
aI0
aI12
aI0
aI1
aI0
aI0
aI0
aI13
aI0
aI6
aI0
aI4
aI0
aI0
aI0
aI13
aI17
aI0
aI0
aI0
aI0
aI2
aI0
aI0
aI0
aI0
aI0
aI20
aI0
aI0
aI0
aI0
aI0
aI0
aI3
aI0
aI0
aI0
aI11
aI0
aI0
aI3
aI0
aI13
aI0
aI0
aI0
aI0
aI0
aI13
aI3
aI0
aI0
aI0
aI0
aI0
aI2
aI0
aI0
aI0
aI0
aI0
aI0
aI0
aI0
aI0
aI0
aI0
aI0
aI0
aI0
aI0
aI0
aI0
aI0
aI3
aI0
aI0
aI0
aI7
aI22
aI0
aI0
aI0
aI7
aI21
aI0
aI0
aI1
aI0
aI4
aI0
aI0
aI1
aI5
aI301
aI0
aI0
aI0
aI0
aI0
aI22
aI7
aI0
aI0
aI6
aI8
aI0
aI0
aI0
aI0
aI5
aI0
aI0
aI0
aI0
aI0
aI0
aI0
aI0
aI7
aI0
aI0
aI0
aI0
aI0
aI0
aI0
aI0
aI0
aI0
aI0
aI9
aI17
aI8
aI0
aI1
aI0
aI0
aI0
aI1
aI0
aI0
aI0
aI0
aI0
aI0
aI4
aI0
aI0
aI1
aI7
aI0
aI0
aI4
aI0
aI0
aI0
aI2
aI1
aI0
aI0
aI0
aI7
aI22
aI0
aI10
aI0
aI13
aI22
aI22
aI6
aI0
aI0
aI0
aI0
aI0
aI0
aI0
aI3
aI0
aI0
aI0
aI0
aI14
aI0
aI0
aI0
aI0
aI1
aI0
aI6
aI0
aI11
aI0
aI3
aI0
aI0
aI0
aI0
aI2
aI0
aI0
aI1
aI0
aI6
aI0
aI0
aI0
aI0
aI11
aI0
aI0
aI10
aI2
aI0
aI0
aI0
aI0
aI1
aI0
aI0
aI0
aI0
aI0
aI15
aI1
aI9
aI3
aI0
aI1
aI0
aI0
aI0
aI20
aI0
aI4
aI0
aI14
aI10
aI0
aI8
aI0
aI2
aI2
aI6
aI0
aI8
aI0
aI0
aI0
aI0
aI0
aI0
aI0
aI4
aI0
aI0
aI0
aI5
aI5
aI0
aI6
aI2
aI0
aI0
aI0
aI1
aI6
aI0
aI0
aI0
aI0
aI0
aI0
aI0
aI0
aI0
aI22
aI2
aI0
aI3
aI9
aI19
aI0
aI3
aI0
aI0
aI3
aI2
aI1
aI2
aI14
aI1
aI3
aI1
aI0
aI0
aI0
aI22
aI1
aI0
aI1
aI0
aI1
aI0
aI0
aI3
aI5
aI0
aI8
aI0
aI0
aI1
aI0
aI5
aI0
aI0
aI0
aI0
aI0
aI2
aI1
aI0
aI1
aI3
aI1
aI0
aI0
aI1
aI3
aI3
aI3
aI22
aI5
aI0
aI0
aI22
aI0
aI4
aI3
aI7
aI5
aI1
aI0
aI1
aI6
aI3
aI1
aI2
aI5
aI0
aI4
aI0
aI0
aI3
aI95
aI0
aI2
aI2
aI1
aI2
aI0
aI0
aI0
aI0
aI7
aI2
aI2
aI2
aI3
aI4
aI0
aI0
aI0
aI3
aI4
aI2
aI3
aI0
aI10
aI0
aI0
aI1
aI3
aI2
aI1
aI328
aI1
aI0
aI2
aI0
aI2
aI0
aI2
aI4
aI0
aI0
aI5
aI0
aI0
aI0
aI0
aI3
aI20
aI322
aI2
aI4
aI1
aI346
aI0
aI14
aI0
aI1
aI0
aI1
aI2
aI2
aI0
aI339
aI2
aI2
aI0
aI0
aI0
aI0
aI0
aI0
aI0
aI5
aI0
aI0
aI3
aI0
aI1
aI0
aI0
aI1
aI12
aI2
aI0
aI0
aI0
aI0
aI18
aI0
aI7
aI3
aI1
aI0
aI1
aI1
aI0
aI4
aI0
aI3
aI1
aI1
aI3
aI0
aI0
aI1
aI2
aI3
aI0
aI0
aI1
aI1
aI0
aI0
aI0
aI12
aI0
aI0
aI3
aI3
aI4
aI2
aI4
aI0
aI1
aI22
aI3
aI0
aI0
aI0
aI0
aI0
aI14
aI3
aI3
aI0
aI3
aI0
aI0
aI3
aI3
aI1
aI34
aI0
aI5
aI0
aI0
aI1
aI0
aI0
aI0
aI0
aI0
aI1
aI1
aI7
aI1
aI3
aI1
aI20
aI0
aI0
aI0
aI4
aI3
aI0
aI22
aI1
aI0
aI0
aI0
aI0
aI0
aI4
aI3
aI1
aI0
aI5
aI0
aI0
aI14
aI0
aI3
aI9
aI0
aI8
aI0
aI5
aI2
aI3
aI0
aI11
aI15
aI15
aI19
aI2
aI0
aI4
aI0
aI3
aI0
aI0
aI1
aI0
aI4
aI4
aI3
aI0
aI0
aI6
aI0
aI0
aI2
aI6
aI0
aI0
aI0
aI0
aI0
aI2
aI0
aI2
aI3
aI3
aI0
aI3
aI0
aI2
aI3
aI0
aI333
aI2
aI0
aI6
aI2
aI6
aI5
aI1
aI2
aI0
aI4
aI351
aI0
aI4
aI3
aI4
aI6
aI3
aI3
aI0
aI2
aI0
aI2
aI9
aI0
aI0
aI1
aI0
aI2
aI1
aI3
aI0
aI7
aI0
aI6
aI0
aI0
aI0
aI12
aI4
aI5
aI0
aI2
aI0
aI3
aI2
aI18
aI7
aI17
aI6
aI4
aI0
aI0
aI4
aI345
aI0
aI1
aI8
aI2
aI0
aI21
aI5
aI3
aI17
aI0
aI1
aI1
aI0
aI1
aI2
aI3
aI3
aI6
aI0
aI0
aI3
aI5
aI4
aI2
aI82
aI4
aI2
aI1
aI2
aI1
aI0
aI0
aI3
aI0
aI0
aI8
aI354
aI4
aI5
aI0
aI16
aI0
aI0
aI3
aI0
aI5
aI0
aI0
aI6
aI323
aI5
aI2
aI0
aI13
aI1
aI3
aI0
aI0
aI0
aI0
aI3
aI3
aI0
aI0
aI4
aI3
aI0
aI0
aI0
aI1
aI0
aI3
aI5
aI4
aI355
aI0
aI14
aI2
aI2
aI3
aI0
aI3
aI0
aI3
aI15
aI0
aI0
aI0
aI0
aI0
aI3
aI0
aI0
aI13
aI22
aI4
aI3
aI4
aI0
aI0
aI1
aI3
aI0
aI2
aI0
aI0
aI1
aI340
aI0
aI0
aI1
aI1
aI5
aI1
aI0
aI0
aI1
aI1
aI1
aI0
aI3
aI2
aI4
aI0
aI0
aI1
aI0
aI22
aI2
aI0
aI2
aI1
aI0
aI0
aI0
aI345
aI2
aI7
aI0
aI11
aI1
aI3
aI0
aI5
aI0
aI0
aI0
aI11
aI2
aI3
aI0
aI0
aI0
aI1
aI0
aI1
aI1
aI4
aI15
aI0
aI348
aI2
aI0
aI359
aI0
aI21
aI0
aI0
aI1
aI0
aI7
aI0
aI0
aI0
aI0
aI1
aI6
aI5
aI0
aI3
aI0
aI4
aI3
aI1
aI5
aI0
aI0
aI0
aI2
aI3
aI4
aI0
aI5
aI1
aI8
aI0
aI0
aI3
aI1
aI0
aI0
aI3
aI0
aI0
aI2
aI0
aI1
aI0
aI0
aI0
aI1
aI0
aI312
aI0
aI0
aI8
aI0
aI0
aI3
aI0
aI3
aI1
aI0
aI0
aI0
aI0
aI0
aI0
aI0
aI2
aI2
aI22
aI2
aI10
aI0
aI2
aI7
aI0
aI1
aI3
aI0
aI11
aI0
aI0
aI0
aI2
aI10
aI6
aI2
aI2
aI0
aI0
aI1
aI0
aI0
aI0
aI4
aI0
aI6
aI1
aI3
aI0
aI2
aI0
aI0
aI0
aI0
aI16
aI4
aI0
aI5
aI3
aI0
aI0
aI20
aI0
aI4
aI0
aI22
aI0
aI350
aI8
aI2
aI0
aI28
aI0
aI5
aI4
aI2
aI0
aI4
aI5
aI8
aI8
aI4
aI5
aI0
aI22
aI0
aI0
aI0
aI0
aI0
aI3
aI3
aI5
aI3
aI0
aI2
aI1
aI0
aI3
aI2
aI1
aI0
aI3
aI4
aI0
aI3
aI4
aI0
aI0
aI5
aI0
aI4
aI4
aI0
aI0
aI1
aI2
aI2
aI0
aI7
aI0
aI18
aI0
aI0
aI0
aI0
aI0
aI22
aI0
aI13
aI0
aI1
aI4
aI0
aI1
aI2
aI1
aI2
aI0
aI0
aI2
aI2
aI4
aI0
aI0
aI1
aI0
aI1
aI2
aI7
aI0
aI0
aI0
aI9
aI11
aI0
aI0
aI2
aI0
aI4
aI0
aI45
aI0
aI0
aI0
aI0
aI6
aI6
aI1
aI2
aI0
aI5
aI1
aI2
aI9
aI16
aI0
aI0
aI5
aI6
aI0
aI1
aI2
aI2
aI0
aI0
aI0
aI0
aI0
aI0
aI22
aI0
aI2
aI0
aI0
aI1
aI3
aI1
aI8
aI2
aI1
aI1
aI4
aI0
aI22
aI3
aI22
aI3
aI0
aI0
aI0
aI2
aI0
aI1
aI0
aI0
aI1
aI4
aI0
aI347
aI0
aI0
aI3
aI0
aI4
aI6
aI1
aI1
aI2
aI0
aI3
aI0
aI1
aI6
aI3
aI2
aI0
aI0
aI2
aI1
aI0
aI0
aI3
aI0
aI0
aI0
aI2
aI2
aI0
aI2
aI2
aI2
aI0
aI15
aI0
aI3
aI0
aI0
aI0
aI0
aI7
aI3
aI0
aI350
aI0
aI2
aI0
aI0
aI22
aI2
aI0
aI8
aI3
aI14
aI6
aI0
aI4
aI1
aI2
aI2
aI0
aI2
aI0
aI0
aI5
aI0
aI0
aI0
aI0
aI1
aI1
aI11
aI6
aI0
aI0
aI0
aI5
aI0
aI22
aI0
aI2
aI0
aI1
aI1
aI0
aI0
aI3
aI3
aI22
aI22
aI0
aI0
aI0
aI0
aI2
aI17
aI0
aI7
aI0
aI0
aI2
aI0
aI0
aI1
aI0
aI0
aI6
aI4
aI2
aI0
aI9
aI3
aI0
aI349
aI1
aI0
aI1
aI0
aI4
aI2
aI5
aI2
aI2
aI0
aI0
aI0
aI0
aI0
aI2
aI2
aI5
aI16
aI0
aI4
aI9
aI2
aI0
aI2
aI334
aI3
aI0
aI1
aI0
aI22
aI0
aI4
aI4
aI5
aI359
aI0
aI0
aI0
aI0
aI2
aI1
aI2
aI1
aI2
aI47
aI0
aI0
aI1
aI0
aI2
aI7
aI1
aI0
aI335
aI0
aI9
aI0
aI4
aI7
aI1
aI4
aI1
aI0
aI1
aI0
aI1
aI0
aI1
aI2
aI0
aI5
aI0
aI1
aI0
aI0
aI1
aI0
aI1
aI0
aI0
aI320
aI0
aI7
aI1
aI6
aI0
aI1
aI0
aI343
aI0
aI3
aI0
aI0
aI18
aI2
aI1
aI0
aI2
aI5
aI3
aI0
aI2
aI11
aI0
aI6
aI359
aI0
aI0
aI3
aI0
aI1
aI0
aI1
aI30
aI0
aI8
aI2
aI22
aI1
aI3
aI0
aI0
aI0
aI349
aI4
aI0
aI2
aI0
aI4
aI4
aI0
aI5
aI3
aI0
aI1
aI0
aI6
aI0
aI2
aI3
aI8
aI2
aI1
aI0
aI4
aI2
aI0
aI4
aI0
aI14
aI5
aI0
aI2
aI1
aI6
aI3
aI1
aI3
aI0
aI6
aI2
aI5
aI1
aI0
aI4
aI0
aI0
aI5
aI1
aI0
aI0
aI10
aI8
aI0
aI0
aI0
aI0
aI0
aI7
aI348
aI2
aI1
aI1
aI6
aI0
aI3
aI0
aI4
aI22
aI0
aI0
aI2
aI56
aI5
aI0
aI0
aI0
aI0
aI5
aI1
aI3
aI0
aI3
aI6
aI0
aI2
aI0
aI3
aI2
aI0
aI5
aI0
aI5
aI0
aI0
aI0
aI0
aI4
aI7
aI0
aI3
aI2
aI0
aI0
aI0
aI2
aI1
aI4
aI0
aI1
aI0
aI0
aI1
aI2
aI0
aI6
aI2
aI0
aI314
aI3
aI2
aI22
aI7
aI0
aI0
aI0
aI0
aI5
aI2
aI0
aI0
aI0
aI2
aI0
aI3
aI1
aI3
aI2
aI3
aI0
aI0
aI0
aI13
aI0
aI3
aI2
aI2
aI0
aI12
aI5
aI1
aI3
aI2
aI0
aI0
aI0
aI3
aI2
aI3
aI5
aI1
aI2
aI4
aI0
aI0
aI21
aI0
aI6
aI0
aI359
aI0
aI0
aI22
aI8
aI0
aI0
aI3
aI19
aI8
aI0
aI0
aI0
aI6
aI0
aI0
aI9
aI0
aI1
aI0
aI1
aI1
aI0
aI1
aI0
aI2
aI4
aI0
aI77
aI1
aI0
aI0
aI7
aI1
aI1
aI1
aI0
aI2
aI2
aI0
aI1
aI2
aI0
aI0
aI2
aI6
aI4
aI356
aI2
aI7
aI0
aI1
aI3
aI4
aI1
aI3
aI22
aI0
aI0
aI0
aI0
aI0
aI0
aI1
aI4
aI3
aI0
aI0
aI1
aI2
aI0
aI344
aI0
aI2
aI2
aI8
aI1
aI4
aI0
aI0
aI3
aI1
aI7
aI1
aI0
aI0
aI0
aI1
aI8
aI3
aI7
aI2
aI22
aI9
aI0
aI1
aI5
aI0
aI1
aI0
aI1
aI0
aI9
aI0
aI0
aI3
aI0
aI3
aI2
aI0
aI0
aI4
aI10
aI21
aI5
aI1
aI7
aI324
aI0
aI0
aI15
aI3
aI0
aI11
aI3
aI2
aI1
aI0
aI2
aI4
aI1
aI2
aI0
aI0
aI0
aI3
aI0
aI0
aI0
aI2
aI0
aI0
aI2
aI3
aI0
aI0
aI22
aI0
aI4
aI3
aI4
aI6
aI2
aI2
aI0
aI2
aI2
aI2
aI2
aI0
aI3
aI4
aI3
aI1
aI7
aI0
aI3
aI0
aI0
aI1
aI0
aI0
aI5
aI4
aI0
aI3
aI2
aI4
aI7
aI4
aI5
aI0
aI2
aI0
aI1
aI0
aI0
aI0
aI3
aI18
aI4
aI0
aI2
aI0
aI0
aI359
aI0
aI1
aI2
aI0
aI312
aI0
aI1
aI3
aI343
aI2
aI2
aI5
aI0
aI0
aI0
aI4
aI0
aI3
aI2
aI1
aI4
aI2
aI0
aI0
aI1
aI4
aI8
aI0
aI2
aI37
aI4
aI0
aI1
aI2
aI15
aI0
aI0
aI0
aI5
aI7
aI0
aI8
aI0
aI5
aI2
aI0
aI4
aI5
aI0
aI4
aI0
aI0
aI0
aI2
aI0
aI0
aI0
aI0
aI0
aI5
aI4
aI0
aI0
aI0
aI3
aI3
aI2
aI2
aI0
aI0
aI0
aI4
aI8
aI0
aI3
aI0
aI3
aI0
aI4
aI5
aI0
aI3
aI2
aI1
aI354
aI0
aI3
aI3
aI1
aI0
aI0
aI0
aI1
aI0
aI0
aI0
aI0
aI0
aI9
aI0
aI4
aI0
aI0
aI22
aI5
aI1
aI16
aI0
aI0
aI2
aI8
aI4
aI0
aI353
aI1
aI2
aI0
aI0
aI8
aI0
aI0
aI2
aI3
aI22
aI22
aI2
aI0
aI10
aI3
aI1
aI22
aI0
aI22
aI3
aI0
aI1
aI0
aI3
aI0
aI1
aI9
asS'car'
p30
(lp31
I285
aI78
aI276
aI72
aI350
aI220
aI246
aI188
aI224
aI129
aI146
aI163
aI123
aI124
aI76
aI187
aI310
aI17
aI112
aI83
aI23
aI33
aI10
aI25
aI233
aI295
aI133
aI102
aI29
aI2
aI292
aI136
aI3
aI19
aI80
aI300
aI108
aI41
aI309
aI303
aI290
aI338
aI3
aI190
aI187
aI194
aI185
aI128
aI155
aI15
aI337
aI107
aI320
aI88
aI69
aI209
aI181
aI129
aI345
aI350
aI42
aI325
aI192
aI28
aI220
aI30
aI250
aI286
aI237
aI205
aI270
aI322
aI54
aI43
aI44
aI338
aI332
aI0
aI163
aI305
aI341
aI343
aI339
aI140
aI181
aI168
aI90
aI100
aI205
aI178
aI5
aI180
aI4
aI236
aI142
aI150
aI339
aI344
aI355
aI10
aI10
aI14
aI9
aI20
aI31
aI30
aI65
aI50
aI240
aI205
aI192
aI208
aI71
aI347
aI192
aI75
aI170
aI295
aI2
aI10
aI11
aI7
aI0
aI0
aI230
aI225
aI205
aI64
aI29
aI46
aI280
aI25
aI185
aI51
aI32
aI7
aI44
aI44
aI130
aI332
aI3
aI5
aI270
aI292
aI12
aI5
aI0
aI0
aI0
aI61
aI235
aI234
aI140
aI255
aI12
aI17
aI155
aI149
aI5
aI306
aI187
aI183
aI167
aI330
aI170
aI32
aI250
aI9
aI351
aI359
aI0
aI202
aI5
aI62
aI180
aI252
aI305
aI295
aI206
aI10
aI246
aI314
aI1
aI125
aI161
aI247
aI171
aI0
aI19
aI21
aI30
aI39
aI125
aI170
aI139
aI27
aI287
aI295
aI340
aI10
aI44
aI124
aI129
aI160
aI309
aI130
aI227
aI240
aI215
aI209
aI208
aI43
aI94
aI91
aI67
aI33
aI21
aI5
aI5
aI10
aI333
aI141
aI342
aI323
aI353
aI339
aI339
aI340
aI352
aI355
aI261
aI152
aI349
aI147
aI330
aI143
aI163
aI159
aI161
aI121
aI334
aI0
aI158
aI80
aI46
aI215
aI35
aI151
aI221
aI60
aI31
aI137
aI230
aI87
aI70
aI1
aI150
aI1
aI165
aI228
aI1
aI0
aI19
aI178
aI4
aI128
aI146
aI152
aI150
aI341
aI326
aI354
aI0
aI241
aI220
aI304
aI30
aI150
aI144
aI153
aI174
aI171
aI163
aI163
aI143
aI130
aI130
aI3
aI197
aI62
aI149
aI3
aI340
aI348
aI300
aI22
aI355
aI245
aI275
aI115
aI143
aI146
aI127
aI133
aI155
aI161
aI165
aI136
aI71
aI102
aI8
aI0
aI315
aI317
aI323
aI209
aI190
aI121
aI95
aI213
aI0
aI45
aI356
aI26
aI115
aI314
aI18
aI169
aI90
aI225
aI204
aI207
aI344
aI63
aI277
aI170
aI175
aI166
aI263
aI250
aI0
aI350
aI172
aI238
aI284
aI37
aI177
aI175
aI181
aI1
aI5
aI3
aI85
aI350
aI314
aI0
aI8
aI320
aI349
aI122
aI65
aI310
aI236
aI12
aI243
aI16
aI178
aI173
aI357
aI356
aI0
aI355
aI347
aI352
aI349
aI10
aI19
aI14
aI346
aI337
aI318
aI219
aI25
aI211
aI329
aI343
aI25
aI122
aI105
aI17
aI193
aI135
aI121
aI231
aI214
aI7
aI61
aI29
aI15
aI173
aI31
aI0
aI38
aI278
aI272
aI53
aI135
aI130
aI283
aI160
aI165
aI31
aI181
aI29
aI275
aI127
aI335
aI219
aI312
aI34
aI351
aI0
aI285
aI125
aI35
aI90
aI352
aI352
aI339
aI0
aI350
aI0
aI90
aI128
aI180
aI74
aI249
aI200
aI195
aI192
aI191
aI293
aI349
aI14
aI355
aI80
aI25
aI75
aI345
aI349
aI9
aI342
aI234
aI200
aI148
aI355
aI189
aI62
aI329
aI3
aI245
aI345
aI178
aI259
aI60
aI1
aI105
aI244
aI46
aI216
aI216
aI205
aI200
aI200
aI352
aI188
aI194
aI208
aI188
aI175
aI186
aI16
aI355
aI347
aI54
aI353
aI10
aI0
aI222
aI25
aI336
aI330
aI181
aI75
aI265
aI285
aI280
aI115
aI100
aI117
aI200
aI188
aI185
aI159
aI347
aI4
aI187
aI0
aI10
aI15
aI320
aI0
aI182
aI357
aI0
aI191
aI185
aI185
aI118
aI89
aI35
aI60
aI342
aI172
aI146
aI166
aI169
aI7
aI1
aI293
aI7
aI20
aI327
aI300
aI37
aI195
aI81
aI243
aI182
aI187
aI140
aI90
aI60
aI141
aI172
aI173
aI172
aI175
aI180
aI165
aI145
aI84
aI102
aI324
aI16
aI352
aI0
aI31
aI255
aI187
aI351
aI315
aI300
aI5
aI180
aI180
aI14
aI14
aI15
aI13
aI15
aI11
aI11
aI9
aI185
aI207
aI79
aI164
aI181
aI182
aI190
aI110
aI334
aI295
aI52
aI27
aI170
aI162
aI68
aI172
aI181
aI180
aI332
aI5
aI155
aI18
aI35
aI219
aI95
aI110
aI112
aI122
aI204
aI235
aI34
aI305
aI331
aI338
aI17
aI36
aI50
aI100
aI90
aI178
aI177
aI183
aI46
aI51
aI52
aI33
aI240
aI203
aI185
aI15
aI10
aI216
aI273
aI196
aI341
aI145
aI309
aI50
aI335
aI66
aI0
aI0
aI172
aI170
aI169
aI168
aI308
aI0
aI59
aI344
aI68
aI350
aI30
aI297
aI52
aI170
aI163
aI177
aI296
aI270
aI177
aI315
aI105
aI273
aI16
aI110
aI19
aI217
aI253
aI318
aI144
aI194
aI79
aI80
aI76
aI115
aI109
aI286
aI314
aI33
aI90
aI170
aI317
aI110
aI111
aI0
aI3
aI181
aI335
aI0
aI270
aI42
aI167
aI65
aI66
aI149
aI61
aI215
aI52
aI140
aI21
aI352
aI345
aI328
aI355
aI289
aI58
aI16
aI330
aI240
aI335
aI300
aI6
aI194
aI248
aI230
aI307
aI25
aI5
aI178
aI108
aI156
aI150
aI8
aI33
aI32
aI145
aI90
aI80
aI112
aI57
aI90
aI86
aI75
aI181
aI180
aI24
aI13
aI6
aI3
aI310
aI310
aI314
aI5
aI344
aI305
aI307
aI216
aI185
aI30
aI13
aI190
aI4
aI195
aI222
aI230
aI295
aI181
aI180
aI5
aI95
aI15
aI333
aI70
aI336
aI318
aI265
aI5
aI226
aI43
aI144
aI160
aI149
aI70
aI81
aI117
aI5
aI0
aI270
aI283
aI100
aI345
aI64
aI330
aI255
aI5
aI57
aI336
aI90
aI306
aI354
aI0
aI15
aI351
aI50
aI46
aI65
aI206
aI157
aI65
aI70
aI328
aI310
aI191
aI83
aI170
aI13
aI292
aI301
aI247
aI271
aI2
aI25
aI55
aI81
aI149
aI73
aI311
aI326
aI0
aI156
aI152
aI280
aI47
aI58
aI128
aI142
aI139
aI10
aI299
aI0
aI215
aI239
aI339
aI0
aI7
aI137
aI119
aI314
aI285
aI172
aI210
aI253
aI245
aI55
aI43
aI315
aI213
aI254
aI1
aI328
aI195
aI335
aI106
aI37
aI150
aI154
aI315
aI180
aI0
aI255
aI2
aI245
aI195
aI350
aI25
aI3
aI350
aI10
aI270
aI300
aI238
aI212
aI339
aI225
aI243
aI226
aI271
aI59
aI334
aI75
aI60
aI50
aI61
aI46
aI105
aI216
aI331
aI319
aI83
aI157
aI347
aI328
aI266
aI0
aI17
aI14
aI178
aI189
aI182
aI0
aI141
aI108
aI236
aI4
aI201
aI9
aI270
aI33
aI313
aI114
aI71
aI242
aI320
aI161
aI162
aI343
aI313
aI353
aI325
aI90
aI302
aI240
aI220
aI160
aI156
aI162
aI95
aI0
aI5
aI333
aI107
aI15
aI4
aI11
aI69
aI235
aI75
aI48
aI39
aI23
aI31
aI75
aI5
aI279
aI179
aI177
aI187
aI212
aI49
aI61
aI199
aI150
aI153
aI110
aI4
aI330
aI300
aI186
aI187
aI183
aI185
aI68
aI304
aI219
aI177
aI111
aI292
aI160
aI287
aI43
aI247
aI192
aI0
aI18
aI355
aI0
aI297
aI344
aI42
aI22
aI177
aI178
aI182
aI185
aI57
aI178
aI180
aI175
aI177
aI121
aI130
aI27
aI348
aI195
aI160
aI340
aI270
aI270
aI84
aI173
aI160
aI354
aI351
aI350
aI329
aI94
aI47
aI24
aI29
aI11
aI336
aI327
aI160
aI173
aI160
aI78
aI347
aI140
aI200
aI29
aI122
aI90
aI69
aI27
aI18
aI145
aI0
aI348
aI12
aI59
aI62
aI321
aI320
aI95
aI340
aI85
aI175
aI151
aI182
aI102
aI81
aI123
aI100
aI180
aI3
aI186
aI249
aI82
aI270
aI270
aI240
aI195
aI22
aI186
aI187
aI100
aI177
aI33
aI90
aI75
aI325
aI317
aI274
aI290
aI25
aI294
aI0
aI9
aI70
aI182
aI143
aI125
aI37
aI40
aI40
aI303
aI132
aI165
aI114
aI115
aI352
aI258
aI289
aI341
aI306
aI315
aI21
aI10
aI274
aI72
aI338
aI341
aI285
aI135
aI130
aI151
aI22
aI198
aI195
aI1
aI194
aI193
aI180
aI180
aI292
aI262
aI331
aI342
aI190
aI195
aI342
aI182
aI0
aI182
aI145
aI91
aI13
aI25
aI134
aI339
aI14
aI100
aI30
aI286
aI297
aI292
aI298
aI20
aI10
aI192
aI132
aI218
aI240
aI245
aI8
aI15
aI229
aI268
aI74
aI4
aI10
aI30
aI15
aI190
aI193
aI21
aI41
aI45
aI57
aI265
aI15
aI106
aI69
aI214
aI192
aI255
aI221
aI45
aI212
aI155
aI168
aI172
aI166
aI118
aI346
aI179
aI185
aI0
aI115
aI32
aI28
aI53
aI60
aI219
aI234
aI50
aI35
aI234
aI264
aI110
aI265
aI177
aI210
aI354
aI0
aI302
aI4
aI280
aI193
aI111
aI191
aI205
aI209
aI223
aI171
aI5
aI261
aI292
aI34
aI149
aI219
aI33
aI122
aI180
aI43
aI33
aI30
aI213
aI340
aI54
aI21
aI19
aI67
aI295
aI47
aI35
aI333
aI194
aI329
aI301
aI25
aI318
aI297
aI327
aI284
aI213
aI13
aI110
aI40
aI346
aI351
aI353
aI331
aI33
aI26
aI304
aI102
aI338
aI110
aI37
aI333
aI164
aI159
aI203
aI156
aI12
aI255
aI109
aI49
aI348
aI0
aI29
aI62
aI100
aI59
aI0
aI180
aI37
aI178
aI199
aI332
aI109
aI192
aI111
aI68
aI327
aI45
aI311
aI138
aI339
aI337
aI282
aI338
aI344
aI198
aI289
aI75
aI144
aI31
aI33
aI347
aI12
aI68
aI278
aI240
aI45
aI33
aI51
aI89
aI83
aI53
aI61
aI19
aI150
aI252
aI329
aI305
aI338
aI0
aI235
aI326
aI70
aI321
aI315
aI75
aI45
aI36
aI180
aI291
aI315
aI140
aI342
aI200
aI336
aI225
aI144
aI214
aI295
aI27
aI38
aI132
aI37
aI334
aI345
aI63
aI0
aI43
aI337
aI133
aI0
aI178
aI52
aI143
aI42
aI102
aI234
aI307
aI287
aI311
aI205
aI39
aI343
aI79
aI130
aI263
aI20
aI18
aI33
aI0
aI82
aI75
aI43
aI113
aI11
aI332
aI207
aI333
aI253
aI123
aI1
aI76
aI40
aI338
aI296
aI202
aI128
aI135
aI111
aI28
aI352
aI0
aI195
aI221
aI8
aI343
aI340
aI315
aI195
aI229
aI328
aI217
aI69
aI0
aI332
aI292
aI320
aI11
aI303
aI22
aI53
aI32
aI142
aI338
aI148
aI176
aI18
aI328
aI18
aI331
aI159
aI210
aI24
aI4
aI330
aI192
aI336
aI335
aI41
aI179
aI147
aI33
aI25
aI207
aI68
aI45
aI27
aI335
aI254
aI292
aI204
aI111
aI137
aI341
aI0
aI326
aI196
aI320
aI329
aI180
aI247
aI181
aI73
aI22
aI325
aI38
aI274
aI334
aI178
aI136
aI22
aI0
aI341
aI250
aI34
aI87
aI102
aI0
aI295
aI324
aI316
aI317
aI213
aI341
aI319
aI306
aI58
aI62
aI10
aI18
aI330
aI331
aI25
aI335
aI203
aI34
aI15
aI332
aI0
aI68
aI244
aI43
aI18
aI329
aI159
aI179
aI153
aI192
aI9
aI292
aI187
aI212
aI227
aI35
aI12
aI190
aI68
aI109
aI213
aI28
aI338
aI133
aI132
aI314
aI17
aI0
aI51
aI201
aI253
aI320
aI328
aI304
aI336
aI137
aI130
aI111
aI315
aI36
aI26
aI296
aI341
aI20
aI208
aI143
aI36
aI181
aI104
aI336
aI23
aI302
aI318
aI240
aI182
aI332
aI73
aI294
aI312
aI53
aI0
aI166
aI24
aI195
aI322
aI333
aI110
aI41
aI0
aI0
aI22
aI214
aI322
aI0
aI32
aI321
aI202
aI24
aI65
aI137
aI0
aI53
aI227
aI40
aI349
aI34
aI110
aI70
aI27
aI289
aI304
aI28
aI136
aI182
aI194
aI209
aI210
aI314
aI134
aI104
aI332
aI177
aI45
aI28
aI194
aI112
aI321
aI20
aI49
aI287
aI54
aI68
aI305
aI96
aI214
aI7
aI73
aI154
aI309
aI57
aI357
aI139
aI20
aI69
aI28
aI32
aI26
aI299
aI46
aI168
aI33
aI22
aI121
aI304
aI38
aI153
aI14
aI331
aI80
aI0
aI311
aI332
aI22
aI189
aI21
aI27
aI331
aI86
aI123
aI160
aI230
aI205
aI337
aI225
aI29
aI28
aI50
aI201
aI33
aI43
aI235
aI77
aI20
aI331
aI103
aI322
aI112
aI136
aI36
aI290
aI34
aI34
aI12
aI34
aI30
aI25
aI329
aI59
aI21
aI337
aI186
aI348
aI285
aI73
aI128
aI53
aI70
aI110
aI313
aI181
aI35
aI120
aI280
aI108
aI112
aI200
aI216
aI200
aI180
aI43
aI18
aI332
aI34
aI272
aI0
aI90
aI195
aI30
aI0
aI38
aI72
aI152
aI25
aI55
aI339
aI1
aI83
aI18
aI251
aI31
aI319
aI155
aI247
aI343
aI336
aI47
aI137
aI334
aI27
aI348
aI0
aI70
aI21
aI252
aI295
aI97
aI149
aI32
aI47
aI0
aI342
aI196
aI243
aI321
aI329
aI87
aI235
aI340
aI316
aI331
aI336
aI54
aI180
aI27
aI322
aI289
aI312
aI247
aI334
aI107
aI87
aI142
aI151
aI73
aI329
aI149
aI22
aI167
aI40
aI32
aI310
aI287
aI329
aI86
aI35
aI0
aI347
aI177
aI288
aI332
aI287
aI333
aI135
aI191
aI182
aI188
aI334
aI36
aI65
aI18
aI291
aI176
aI133
aI70
aI279
aI349
aI317
aI324
aI328
aI209
aI259
aI222
aI31
aI262
aI28
aI20
aI21
aI343
aI315
aI26
aI34
aI40
aI258
aI294
aI321
aI62
aI314
aI182
aI16
aI326
aI30
aI0
aI316
aI320
aI51
aI329
aI16
aI329
aI145
aI321
aI56
aI256
aI333
aI0
aI27
aI112
aI303
aI342
aI100
aI327
aI0
aI28
aI75
aI179
aI33
aI61
aI0
aI16
aI24
aI340
aI45
aI108
aI70
aI36
aI14
aI322
aI318
aI109
aI229
aI311
aI41
aI342
aI84
aI71
aI235
aI150
aI221
aI138
aI46
aI246
aI42
aI155
aI28
aI27
aI50
aI182
aI332
aI148
aI147
aI33
aI297
aI258
aI110
aI336
aI21
aI325
aI0
aI351
aI343
aI21
aI42
aI220
aI74
aI32
aI260
aI38
aI27
aI84
aI306
aI233
aI31
aI23
aI337
aI311
aI96
aI0
aI240
aI38
aI107
aI244
aI250
aI20
aI311
aI323
aI209
aI334
aI304
aI17
aI1
aI21
aI42
aI304
aI137
aI324
aI309
aI14
aI141
aI198
aI345
aI37
aI327
aI280
aI342
aI295
aI123
aI23
aI122
aI323
aI118
aI48
aI200
aI26
aI23
aI11
aI9
aI0
aI124
aI36
aI289
aI146
aI318
aI118
aI68
aI27
aI42
aI197
aI328
aI51
aI319
aI15
aI31
aI6
aI61
aI56
aI31
aI45
aI224
aI289
aI273
aI7
aI281
aI72
aI309
aI310
aI183
aI151
aI321
aI270
aI38
aI332
aI56
aI32
aI21
aI143
aI201
aI343
aI311
aI31
aI0
aI162
aI307
aI223
aI41
aI75
aI243
aI63
aI12
aI336
aI7
aI345
aI0
aI27
aI211
aI48
aI156
aI335
aI66
aI110
aI145
aI200
aI317
aI15
aI328
aI178
aI29
aI328
aI325
aI19
aI345
aI29
aI212
aI318
aI18
aI310
aI247
aI322
aI31
aI318
aI227
aI8
aI40
aI341
aI318
aI65
aI224
aI59
aI334
aI254
aI75
aI326
aI45
aI316
aI157
aI330
aI104
aI38
aI13
aI17
aI15
aI325
aI38
aI0
aI44
aI277
aI33
aI30
aI38
aI342
aI33
aI322
aI345
aI300
aI110
aI112
aI344
aI324
aI244
aI46
aI39
aI332
aI17
aI178
aI121
aI331
aI167
aI32
aI236
aI213
aI28
aI143
aI13
aI38
aI107
aI22
aI179
aI127
aI227
aI20
aI251
aI27
aI110
aI40
aI160
aI37
aI65
aI71
aI32
aI339
aI342
aI43
aI100
aI327
aI31
aI13
aI64
aI330
aI27
aI178
aI263
aI92
aI310
aI17
aI338
aI35
aI29
aI216
aI282
aI169
aI179
aI247
aI23
aI42
aI284
aI221
aI55
aI39
aI14
aI122
aI37
aI260
aI269
aI332
aI223
aI32
aI188
aI24
aI132
aI325
aI69
aI344
aI331
aI290
aI214
aI124
aI321
aI30
aI323
aI352
aI201
aI143
aI29
aI232
aI308
aI300
aI333
aI71
aI163
aI210
aI136
aI4
aI0
aI179
aI35
aI329
aI89
aI136
aI55
aI348
aI24
aI6
aI46
aI39
aI308
aI283
aI25
aI9
aI338
aI327
aI127
aI32
aI25
aI343
aI310
aI18
aI337
aI337
aI71
aI297
aI326
aI54
aI0
aI259
aI217
aI329
aI22
aI286
aI29
aI314
aI336
aI335
aI69
aI26
aI23
aI120
aI111
aI36
aI336
aI111
aI328
aI333
aI310
aI41
aI85
aI42
aI54
aI279
aI297
aI119
aI22
aI320
aI11
aI27
aI24
aI336
aI326
aI20
aI109
aI326
aI23
aI278
aI324
aI253
aI208
aI154
aI36
aI23
aI317
aI156
aI44
aI347
aI333
aI249
aI215
aI210
aI27
aI114
aI335
aI158
aI329
aI344
aI128
aI323
aI318
aI334
aI161
aI142
aI323
aI344
aI40
aI281
aI167
aI31
aI22
aI310
aI0
aI24
aI178
aI199
aI111
aI23
aI331
aI347
aI284
aI45
aI347
aI27
aI306
aI177
aI207
aI347
aI69
aI266
aI296
aI170
aI0
aI294
aI55
aI322
aI340
aI159
aI147
aI19
aI333
aI171
aI73
aI5
aI210
aI24
aI300
aI104
aI15
aI110
aI34
aI331
aI230
aI330
aI69
aI42
aI23
aI37
aI301
aI300
aI319
aI210
aI56
aI230
aI24
aI156
aI99
aI326
aI54
aI38
aI191
aI26
aI292
aI312
aI32
aI316
aI179
aI320
aI316
aI144
aI154
aI31
aI68
aI6
aI24
aI99
aI15
aI112
aI332
aI58
aI3
aI0
aI96
aI306
aI64
aI329
aI287
aI301
aI43
aI34
aI345
aI15
aI279
aI179
aI348
aI333
aI126
aI203
aI197
aI186
aI276
aI325
aI296
aI35
aI25
aI179
aI69
aI291
aI195
aI26
aI153
aI44
aI181
aI281
aI284
aI335
aI348
aI85
aI138
aI341
aI326
aI326
aI102
aI280
aI21
aI243
aI62
aI240
aI301
aI14
aI198
aI179
aI123
aI0
aI300
aI86
aI296
aI17
aI63
aI31
aI232
aI305
aI333
aI111
aI37
aI153
aI30
aI321
aI6
aI22
aI347
aI73
aI315
aI29
aI350
aI16
aI325
aI17
aI335
aI30
aI51
aI23
aI260
aI187
aI347
aI34
aI50
aI54
aI297
aI342
aI339
aI38
aI35
aI39
aI42
aI292
aI335
aI7
aI108
aI26
aI288
aI36
aI357
aI179
aI325
aI17
aI334
aI344
aI335
aI24
aI33
aI50
aI341
aI160
aI13
aI349
aI334
aI316
aI56
aI288
aI223
aI205
aI17
aI338
aI333
aI34
aI346
aI127
aI53
aI325
aI319
aI29
aI28
aI251
aI153
aI22
aI21
aI8
aI33
aI155
aI29
aI26
aI0
aI338
aI303
aI332
aI312
aI325
aI121
aI316
aI19
aI200
aI51
aI52
aI330
aI43
aI346
aI31
aI247
aI166
aI154
aI332
aI28
aI37
aI315
aI30
aI27
aI42
aI299
aI1
aI36
aI18
aI156
aI177
aI158
aI298
aI187
aI20
aI35
aI117
aI317
aI347
aI207
aI298
aI0
aI34
aI38
aI338
aI289
aI291
aI0
aI71
aI152
aI27
aI320
aI179
aI344
aI209
aI103
aI101
aI149
aI19
aI214
aI316
aI21
aI26
aI243
aI337
aI51
aI0
aI321
aI236
aI0
aI281
aI26
aI335
aI219
aI61
aI246
aI133
aI266
aI165
aI0
aI106
aI33
aI36
aI179
aI28
aI104
aI28
aI319
aI283
aI23
aI158
aI49
aI26
aI28
aI0
aI32
aI319
aI331
aI329
aI13
aI335
aI28
aI334
aI307
aI324
aI153
aI185
aI323
aI328
aI334
aI335
aI0
aI162
aI306
aI2
aI60
aI46
aI336
aI18
aI341
aI91
aI0
aI111
aI218
aI112
aI78
aI311
aI49
aI181
aI313
aI112
aI124
aI107
aI204
aI67
aI36
aI88
aI291
aI320
aI31
aI29
aI28
aI344
aI120
aI200
aI109
aI353
aI98
aI32
aI288
aI13
aI253
aI63
aI52
aI0
aI108
aI298
aI316
aI169
aI187
aI32
aI51
aI325
aI249
aI18
aI325
aI162
aI139
aI27
aI324
aI10
aI342
aI209
aI17
aI190
aI335
aI6
aI324
aI337
aI94
aI215
aI221
aI38
aI59
aI334
aI253
aI327
aI340
aI145
aI331
aI17
aI325
aI33
aI26
aI242
aI49
aI60
aI344
aI38
aI0
aI335
aI211
aI52
aI183
aI0
aI299
aI306
aI0
aI29
aI191
aI253
aI204
aI335
aI38
aI32
aI60
aI350
aI29
aI50
aI217
aI213
aI250
aI23
aI102
aI17
aI3
aI102
aI220
aI16
aI75
aI14
aI5
aI130
aI40
aI313
aI172
aI46
aI31
aI5
aI33
aI134
aI87
aI296
aI78
aI9
aI154
aI352
aI182
aI14
aI208
aI340
aI281
aI316
aI305
aI16
aI30
aI336
aI224
aI39
aI327
aI349
aI54
aI250
aI63
aI112
aI165
aI25
aI80
aI334
aI53
aI40
aI55
aI332
aI234
aI293
aI338
aI33
aI179
aI190
aI146
aI41
aI331
aI13
aI0
aI324
aI247
aI70
aI152
aI345
aI332
aI40
aI39
aI306
aI81
aI48
aI236
aI110
aI42
aI65
aI179
aI70
aI327
aI32
aI307
aI308
aI19
aI313
aI318
aI32
aI49
aI181
aI204
aI339
aI21
aI177
aI26
aI59
aI267
aI331
aI329
aI202
aI339
aI37
aI325
aI113
aI17
aI203
aI58
aI18
aI323
aI311
aI328
aI242
aI54
aI109
aI315
aI151
aI266
aI111
aI322
aI57
aI28
aI29
aI216
aI36
aI43
aI336
aI37
aI209
aI42
aI348
aI130
aI28
aI30
aI289
aI327
aI27
aI21
aI316
aI197
aI313
aI355
aI183
aI29
aI31
aI91
aI329
aI297
aI303
aI105
aI43
aI196
aI58
aI319
aI292
aI338
aI333
aI71
aI179
aI19
aI154
aI39
aI215
aI17
aI18
aI182
aI109
aI64
aI42
aI31
aI45
aI50
aI16
aI255
aI302
aI42
aI29
aI349
aI83
aI207
aI22
aI324
aI231
aI207
aI22
aI49
aI26
aI35
aI22
aI13
aI43
aI301
aI155
aI1
aI276
aI325
aI330
aI305
aI39
aI27
aI328
aI177
aI317
aI314
aI339
aI45
aI112
aI327
aI226
aI196
aI291
aI18
aI32
aI317
aI328
aI117
aI1
aI331
aI29
aI91
aI344
aI104
aI36
aI161
aI268
aI255
aI209
aI177
aI319
aI238
aI47
aI255
aI333
aI25
aI334
aI231
aI325
aI334
aI251
aI204
aI0
aI329
aI0
aI28
aI337
aI303
aI227
aI142
aI182
aI329
aI334
aI289
aI58
aI67
aI317
aI316
aI108
aI77
aI70
aI14
aI204
aI327
aI218
aI54
aI310
aI49
aI322
aI249
aI235
aI30
aI59
aI310
aI134
aI311
aI3
aI72
aI0
aI331
aI206
aI241
aI110
aI32
aI50
aI287
aI105
aI36
aI111
aI335
aI164
aI32
aI252
aI0
aI23
aI153
aI336
aI112
aI125
aI329
aI240
aI27
aI322
aI109
aI325
aI140
aI139
aI18
aI321
aI214
aI0
aI12
aI22
aI57
aI227
aI326
aI37
aI24
aI204
aI33
aI66
aI319
aI88
aI50
aI144
aI23
aI342
aI152
aI163
aI170
aI192
aI39
aI58
aI179
aI109
aI67
aI250
aI67
aI31
aI218
aI335
aI13
aI266
aI29
aI239
aI318
aI179
aI239
aI328
aI196
aI273
aI135
aI25
aI42
aI19
aI214
aI21
aI316
aI303
aI57
aI163
aI142
aI37
aI44
aI212
aI104
aI308
aI173
aI335
aI10
aI11
aI320
aI162
aI318
aI251
aI210
aI309
aI251
aI318
aI119
aI317
aI188
aI179
aI56
aI24
aI12
aI44
aI257
aI235
aI10
aI335
aI154
aI46
aI350
aI13
aI159
aI14
aI346
aI180
aI48
aI153
aI150
aI0
aI303
aI110
aI32
aI35
aI211
aI109
aI179
aI298
aI303
aI33
aI202
aI31
aI337
aI23
aI193
aI88
aI20
aI33
aI1
aI307
aI302
aI36
aI326
aI44
aI117
aI316
aI126
aI10
aI228
aI84
aI163
aI351
aI340
aI146
aI320
aI42
aI154
aI48
aI52
aI315
aI19
aI289
aI33
aI19
aI21
aI196
aI267
aI202
aI274
aI28
aI309
aI111
aI5
aI20
aI163
aI323
aI169
aI342
aI217
aI197
aI224
aI38
aI328
aI66
aI330
aI321
aI325
aI342
aI64
aI42
aI35
aI247
aI159
aI342
aI177
aI291
aI30
aI179
aI236
aI55
aI71
aI208
aI104
aI341
aI39
aI146
aI39
aI348
aI343
aI225
aI325
aI327
aI345
aI42
aI342
aI26
aI30
aI18
aI339
aI63
aI323
aI23
aI33
aI52
aI67
aI17
aI35
aI306
aI30
aI334
aI7
aI30
aI331
aI317
aI54
aI62
aI344
aI195
aI59
aI315
aI58
aI333
aI336
aI252
aI305
aI182
aI244
aI140
aI43
aI190
aI332
aI106
aI179
aI262
aI276
aI312
aI239
aI330
aI342
aI179
aI185
aI238
aI26
aI92
aI182
aI217
aI341
aI287
aI28
aI28
aI318
aI349
aI36
aI150
aI343
aI62
aI325
aI46
aI206
aI240
aI21
aI163
aI26
aI330
aI27
aI0
aI179
aI338
aI270
aI347
aI197
aI6
aI113
aI30
aI330
aI207
aI148
aI248
aI102
aI228
aI339
aI11
aI342
aI66
aI0
aI37
aI241
aI340
aI57
aI100
aI64
aI335
aI212
aI45
aI335
aI164
aI144
aI32
aI73
aI230
aI0
aI59
aI324
aI204
aI30
aI59
aI37
aI47
aI279
aI316
aI23
aI30
aI344
aI53
aI24
aI180
aI352
aI338
aI182
aI38
aI339
aI43
aI333
aI17
aI43
aI311
aI105
aI283
aI26
aI90
aI291
aI19
aI62
aI42
aI59
aI339
aI161
aI43
aI297
aI342
aI317
aI134
aI294
aI37
aI334
aI36
aI219
aI31
aI291
aI24
aI82
aI15
aI125
aI213
aI338
aI290
aI180
aI53
aI280
aI112
aI295
aI335
aI65
aI304
aI37
aI29
aI326
aI292
aI339
aI66
aI49
aI107
aI103
aI329
aI212
aI261
aI57
aI277
aI22
aI16
aI41
aI320
aI284
aI290
aI180
aI83
aI133
aI108
aI242
aI207
aI319
aI24
aI217
aI198
aI210
aI216
aI261
aI321
aI4
aI271
aI35
aI24
aI334
aI333
aI221
aI282
aI314
aI31
aI106
aI98
aI8
aI336
aI60
aI31
aI318
aI22
aI0
aI232
aI242
aI219
aI346
aI147
aI301
aI337
aI28
aI163
aI239
aI332
aI211
aI324
aI14
aI315
aI47
aI264
aI24
aI32
aI295
aI304
aI46
aI71
aI169
aI162
aI321
aI179
aI27
aI69
aI317
aI75
aI16
aI77
aI335
aI187
aI277
aI177
aI43
aI331
aI331
aI97
aI27
aI343
aI37
aI17
aI74
aI27
aI338
aI42
aI306
aI271
aI128
aI120
aI55
aI349
aI170
aI175
aI178
aI303
aI25
aI223
aI111
aI321
aI14
aI121
aI104
aI52
aI276
aI73
aI150
aI269
aI60
aI46
aI113
aI328
aI51
aI23
aI132
aI68
aI199
aI155
aI36
aI47
aI149
aI180
aI31
aI311
aI68
aI76
aI27
aI138
aI16
aI307
aI0
aI171
aI324
aI319
aI42
aI251
aI33
aI300
aI174
aI170
aI329
aI52
aI327
aI26
aI59
aI33
aI257
aI43
aI323
aI15
aI257
aI108
aI241
aI311
aI0
aI109
aI43
aI30
aI234
aI239
aI173
aI197
aI166
aI229
aI193
aI10
aI248
aI81
aI323
aI307
aI177
aI38
aI37
aI28
aI115
aI30
aI129
aI148
aI37
aI187
aI17
aI10
aI14
aI330
aI111
aI43
aI32
aI17
aI310
aI282
aI319
aI249
aI43
aI347
aI17
aI319
aI23
aI47
aI22
aI342
aI16
aI181
aI171
aI20
aI14
aI205
aI0
aI35
aI345
aI25
aI110
aI262
aI259
aI12
aI181
aI178
aI69
aI206
aI226
aI106
aI303
aI17
aI130
aI23
aI130
aI23
aI206
aI62
aI24
aI77
aI344
aI14
aI312
aI35
aI32
aI54
aI17
aI180
aI26
aI159
aI331
aI21
aI24
aI242
aI142
aI70
aI140
aI254
aI197
aI15
aI67
aI322
aI25
aI54
aI150
aI26
aI75
aI39
aI308
aI198
aI186
aI290
aI195
aI332
aI55
aI109
aI20
aI319
aI237
aI27
aI220
aI212
aI39
aI178
aI314
aI337
aI0
aI138
aI291
aI340
aI5
aI339
aI221
aI337
aI348
aI328
aI317
aI260
aI326
aI69
aI12
aI9
aI33
aI67
aI287
aI257
aI66
aI178
aI65
aI336
aI197
aI322
aI69
aI28
aI237
aI98
aI176
aI198
aI23
aI61
aI182
aI279
aI328
aI18
aI203
aI0
aI332
aI340
aI19
aI180
aI312
aI298
aI32
aI163
aI282
aI28
aI50
aI194
aI330
aI318
aI122
aI310
aI164
aI327
aI107
aI248
aI340
aI38
aI21
aI95
aI179
aI333
aI334
aI330
aI54
aI172
aI152
aI0
aI79
aI314
aI341
aI313
aI81
aI221
aI204
aI60
aI67
aI46
aI21
aI231
aI209
aI38
aI301
aI319
aI163
aI70
aI241
aI340
aI281
aI328
aI0
aI219
aI160
aI17
aI151
aI102
aI35
aI284
aI31
aI82
aI353
aI292
aI54
aI220
aI221
aI14
aI200
aI34
aI263
aI112
aI350
aI341
aI328
aI220
aI13
aI333
aI336
aI336
aI43
aI287
aI142
aI1
aI171
aI312
aI324
aI266
aI347
aI22
aI338
aI101
aI23
aI188
aI334
aI39
aI231
aI111
aI26
aI335
aI313
aI211
aI0
aI22
aI67
aI58
aI181
aI322
aI318
aI28
aI319
aI15
aI354
aI25
aI330
aI64
aI165
aI29
aI23
aI40
aI40
aI337
aI19
aI13
aI211
aI207
aI322
aI326
aI7
aI214
aI320
aI354
aI43
aI36
aI15
aI332
aI214
aI253
aI330
aI330
aI230
aI327
aI290
aI0
aI139
aI315
aI106
aI15
aI55
aI338
aI295
aI321
aI288
aI335
aI328
aI331
aI231
aI322
aI331
aI81
aI144
aI29
aI330
aI208
aI301
aI0
aI224
aI106
aI50
aI57
aI163
aI30
aI60
aI287
aI248
aI24
aI337
aI242
aI38
aI12
aI338
aI337
aI45
aI220
aI337
aI39
aI336
aI298
aI311
aI24
aI24
aI307
aI25
aI33
aI158
aI129
aI344
aI35
aI152
aI41
aI26
aI26
aI37
aI327
aI247
aI36
aI94
aI33
aI247
aI320
aI40
aI31
aI49
aI23
aI138
aI126
aI230
aI260
aI341
aI73
aI70
aI339
aI130
aI326
aI247
aI47
aI195
aI99
aI203
aI162
aI182
aI178
aI191
aI16
aI0
aI199
aI35
aI327
aI337
aI323
aI112
aI188
aI328
aI22
aI328
aI240
aI297
aI32
aI69
aI351
aI0
aI47
aI328
aI219
aI107
aI331
aI160
aI33
aI143
aI110
aI58
aI143
aI207
aI283
aI295
aI306
aI108
aI247
aI67
aI49
aI0
aI250
aI297
aI65
aI147
aI257
aI255
aI57
aI48
aI296
aI329
aI286
aI69
aI346
aI22
aI76
aI159
aI45
aI262
aI203
aI292
aI38
aI2
aI102
aI44
aI296
aI50
aI344
aI330
aI156
aI154
aI273
aI326
aI336
aI305
aI208
aI333
aI30
aI47
aI140
aI15
aI333
aI241
aI151
aI326
aI147
aI11
aI48
aI291
aI0
aI17
aI324
aI351
aI343
aI292
aI112
aI38
aI353
aI331
aI165
aI0
aI181
aI153
aI40
aI318
aI41
aI112
aI0
aI166
aI346
aI299
aI61
aI47
aI330
aI316
aI159
aI12
aI35
aI53
aI26
aI332
aI327
aI57
aI334
aI165
aI321
aI123
aI315
aI317
aI4
aI243
aI312
aI110
aI130
aI116
aI322
aI333
aI307
aI27
aI334
aI207
aI20
aI272
aI18
aI144
aI305
aI204
aI68
aI290
aI336
aI42
aI319
aI315
aI312
aI261
aI207
aI0
aI79
aI17
aI144
aI26
aI47
aI330
aI62
aI46
aI29
aI118
aI28
aI337
aI27
aI296
aI293
aI51
aI286
aI24
aI35
aI324
aI339
aI298
aI18
aI38
aI187
aI50
aI341
aI31
aI124
aI340
aI29
aI22
aI320
aI25
aI314
aI332
aI28
aI177
aI125
aI165
aI319
aI256
aI327
aI289
aI138
aI26
aI66
aI315
aI48
aI17
aI107
aI27
aI52
aI320
aI337
aI61
aI119
aI201
aI214
aI45
aI292
aI108
aI30
aI37
aI343
aI16
aI337
aI111
aI238
aI328
aI31
aI110
aI18
aI348
aI248
aI318
aI191
aI138
aI218
aI59
aI200
aI69
aI234
aI180
aI249
aI61
aI26
aI239
aI215
aI145
aI25
aI270
aI0
aI310
aI15
aI351
aI24
aI41
aI295
aI90
aI321
aI248
aI106
aI26
aI332
aI307
aI202
aI320
aI217
aI73
aI201
aI324
aI350
aI35
aI27
aI320
aI122
aI151
aI346
aI197
aI179
aI27
aI206
aI36
aI328
aI4
aI313
aI0
aI163
aI23
aI6
aI333
aI289
aI24
aI104
aI92
aI28
aI55
aI100
aI29
aI306
aI2
aI352
aI303
aI70
aI216
aI0
aI33
aI19
aI343
aI56
aI333
aI27
aI183
aI76
aI69
aI94
aI53
aI45
aI222
aI309
aI13
aI126
aI18
aI67
aI37
aI86
aI0
aI126
aI37
aI199
aI315
aI252
aI217
aI0
aI340
aI203
aI144
aI28
aI30
aI82
aI27
aI81
aI336
aI36
aI37
aI306
aI194
aI177
aI52
aI338
aI189
aI193
aI193
aI299
aI76
aI26
aI259
aI336
aI326
aI164
aI18
aI31
aI210
aI111
aI327
aI22
aI312
aI194
aI20
aI179
aI17
aI32
aI322
aI21
aI45
aI353
aI43
aI318
aI179
aI307
aI22
aI162
aI36
aI250
aI53
aI300
aI23
aI20
aI331
aI3
aI80
aI107
aI328
aI264
aI333
aI139
aI326
aI330
aI108
aI181
aI27
aI347
aI234
aI24
aI253
aI249
aI341
aI334
aI303
aI238
aI110
aI17
aI49
aI33
aI319
aI0
aI260
aI23
aI221
aI30
aI295
aI150
aI69
aI162
aI44
aI329
aI15
aI14
aI38
aI192
aI300
aI113
aI143
aI344
aI68
aI243
aI239
aI177
aI314
aI335
aI62
aI168
aI33
aI112
aI26
aI211
aI186
aI300
aI103
aI177
aI26
aI302
aI333
aI312
aI28
aI17
aI45
aI317
aI303
aI257
aI197
aI322
aI254
aI177
aI63
aI188
aI160
aI153
aI136
aI72
aI195
aI46
aI145
aI37
aI0
aI252
aI142
aI45
aI65
aI340
aI29
aI43
aI182
aI339
aI22
aI25
aI113
aI287
aI31
aI343
aI344
aI217
aI73
aI15
aI9
aI346
aI137
aI338
aI255
aI330
aI74
aI31
aI334
aI69
aI109
aI28
aI26
aI347
aI223
aI17
aI328
aI9
aI322
aI34
aI323
aI39
aI12
aI312
aI351
aI181
aI247
aI37
aI34
aI112
aI44
aI213
aI332
aI60
aI317
aI67
aI23
aI182
aI180
aI334
aI68
aI71
aI304
aI247
aI337
aI37
aI210
aI297
aI16
aI52
aI237
aI3
aI154
aI329
aI41
aI119
aI0
aI243
aI144
aI288
aI129
aI300
aI19
aI324
aI327
aI239
aI271
aI4
aI208
aI47
aI179
aI113
aI22
aI30
aI207
aI70
aI144
aI328
aI332
aI137
aI19
aI36
aI143
aI297
aI304
aI68
aI290
aI73
aI183
aI38
aI27
aI15
aI37
aI53
aI62
aI79
aI349
aI331
aI45
aI334
aI29
aI244
aI0
aI197
aI350
aI193
aI326
aI126
aI227
aI25
aI324
aI334
aI77
aI38
aI134
aI264
aI64
aI0
aI112
aI68
aI19
aI139
aI73
aI65
aI58
aI62
aI193
aI132
aI0
aI239
aI330
aI66
aI327
aI22
aI30
aI236
aI334
aI21
aI102
aI334
aI208
aI8
aI149
aI302
aI324
aI1
aI15
aI303
aI325
aI302
aI0
aI23
aI334
aI340
aI117
aI0
aI329
aI39
aI38
aI19
aI216
aI322
aI24
aI162
aI181
aI168
aI326
aI33
aI299
aI340
aI124
aI4
aI20
aI337
aI142
aI330
aI334
aI37
aI138
aI120
aI316
aI66
aI29
aI257
aI64
aI58
aI246
aI289
aI191
aI330
aI130
aI187
aI59
aI84
aI249
aI290
aI178
aI248
aI330
aI351
aI326
aI200
aI337
aI171
aI355
aI201
aI180
aI15
aI321
aI25
aI14
aI0
aI48
aI316
aI0
aI17
aI18
aI21
aI34
aI328
aI46
aI297
aI339
aI41
aI283
aI246
aI45
aI112
aI344
aI127
aI181
aI46
aI347
aI327
aI265
aI340
aI31
aI220
aI249
aI0
aI331
aI333
aI107
aI0
aI317
aI2
aI0
aI60
aI26
aI207
aI73
aI275
aI111
aI336
aI17
aI143
aI107
aI90
aI110
aI275
aI240
aI297
aI223
aI77
aI250
aI342
aI326
aI65
aI112
aI177
aI324
aI208
aI241
aI47
aI40
aI138
aI107
aI202
aI341
aI203
aI18
aI35
aI18
aI324
aI35
aI38
aI24
aI324
aI179
aI35
aI35
aI322
aI20
aI29
aI106
aI28
aI22
aI203
aI62
aI196
aI28
aI288
aI156
aI216
aI346
aI48
aI212
aI14
aI14
aI28
aI327
aI177
aI62
aI90
aI321
aI166
aI318
aI66
aI346
aI180
aI111
aI55
aI200
aI324
aI10
aI60
aI25
aI180
aI12
aI31
aI142
aI14
aI16
aI105
aI207
aI39
aI318
aI333
aI344
aI166
aI26
aI284
aI39
aI339
aI48
aI306
aI152
aI281
aI20
aI293
aI26
aI49
aI322
aI331
aI311
aI292
aI225
aI214
aI300
aI90
aI60
aI305
aI59
aI310
aI0
aI333
aI48
aI73
aI329
aI153
aI17
aI0
aI299
aI67
aI334
aI333
aI28
aI343
aI36
aI29
aI333
aI316
aI25
aI27
aI249
aI323
aI33
aI0
aI337
aI319
aI324
aI72
aI67
aI57
aI259
aI6
aI348
aI24
aI347
aI243
aI29
aI37
aI18
aI40
aI247
aI42
aI326
aI107
aI51
aI203
aI249
aI98
aI337
aI102
aI305
aI310
aI22
aI288
aI42
aI10
aI327
aI217
aI122
aI189
aI78
aI22
aI330
aI70
aI145
aI223
aI225
aI69
aI0
aI336
aI161
aI331
aI2
aI37
aI41
aI310
aI181
aI181
aI157
aI32
aI55
aI36
aI26
aI27
aI279
aI333
aI17
aI336
aI339
aI14
aI230
aI72
aI43
aI337
aI335
aI129
aI343
aI52
aI101
aI162
aI341
aI307
aI240
aI242
aI343
aI11
aI68
aI180
aI48
aI50
aI327
aI38
aI48
aI323
aI192
aI331
aI292
aI284
aI327
aI12
aI39
aI51
aI33
aI289
aI21
aI314
aI203
aI323
aI312
aI29
aI43
aI342
aI207
aI289
aI22
aI39
aI154
aI18
aI224
aI27
aI272
aI28
aI31
aI50
aI291
aI74
aI22
aI154
aI224
aI176
aI298
aI330
aI354
aI28
aI46
aI108
aI312
aI70
aI285
aI315
aI318
aI335
aI36
aI328
aI199
aI33
aI344
aI111
aI38
aI341
aI69
aI27
aI73
aI178
aI330
aI51
aI54
aI97
aI32
aI240
aI27
aI128
aI287
aI32
aI177
aI45
aI287
aI333
aI341
aI244
aI163
aI314
aI34
aI340
aI27
aI267
aI40
aI182
aI95
aI293
aI31
aI202
aI29
aI308
aI252
aI339
aI179
aI153
aI248
aI326
aI151
aI293
aI99
aI34
aI8
aI351
aI332
aI328
aI36
aI340
aI133
aI25
aI318
aI336
aI322
aI27
aI27
aI98
aI328
aI162
aI258
aI176
aI322
aI78
aI218
aI26
aI42
aI119
aI311
aI254
aI337
aI167
aI134
aI317
aI119
aI136
aI280
aI166
aI153
aI43
aI65
aI34
aI34
aI275
aI276
aI0
aI211
aI315
aI38
aI332
aI21
aI300
aI272
aI335
aI352
aI60
aI321
aI155
aI29
aI25
aI119
aI18
aI133
aI187
aI225
aI222
aI16
aI314
aI182
aI19
aI146
aI28
aI318
aI224
aI33
aI110
aI166
aI23
aI230
aI283
aI69
aI334
aI35
aI146
aI222
aI298
aI245
aI58
aI130
aI341
aI23
aI269
aI292
aI43
aI139
aI335
aI110
aI22
aI14
aI81
aI320
aI318
aI181
aI292
aI24
aI33
aI68
aI128
aI1
aI168
aI15
aI32
aI67
aI252
aI340
aI9
aI15
aI327
aI68
aI21
aI180
aI48
aI239
aI19
aI179
aI95
aI336
aI302
aI335
aI0
aI128
aI159
aI0
aI210
aI68
aI214
aI334
aI38
aI308
aI19
aI164
aI124
aI154
aI259
aI309
aI0
aI341
aI27
aI244
aI66
aI320
aI48
aI337
aI70
aI123
aI70
aI49
aI56
aI204
aI71
aI21
aI203
aI195
aI163
aI25
aI334
aI25
aI42
aI250
aI308
aI284
aI180
aI245
aI26
aI51
aI340
aI336
aI240
aI0
aI291
aI85
aI199
aI144
aI27
aI304
aI38
aI106
aI37
aI330
aI306
aI32
aI67
aI30
aI341
aI45
aI152
aI158
aI112
aI331
aI153
aI67
aI270
aI162
aI111
aI324
aI29
aI344
aI321
aI288
aI161
aI129
aI224
aI346
aI40
aI3
aI104
aI181
aI0
aI332
aI60
aI55
aI21
aI156
aI125
aI343
aI146
aI24
aI123
aI110
aI332
aI325
aI159
aI173
aI148
aI112
aI38
aI11
aI327
aI180
aI266
aI53
aI19
aI316
aI69
aI333
aI282
aI111
aI22
aI71
aI177
aI331
aI350
aI26
aI324
aI56
aI18
aI0
aI35
aI153
aI317
aI136
aI110
aI244
aI45
aI155
aI228
aI251
aI332
aI112
aI15
aI109
aI300
aI58
aI227
aI316
aI108
aI37
aI51
aI37
aI309
aI21
aI148
aI137
aI130
aI0
aI86
aI320
aI16
aI218
aI326
aI228
aI330
aI320
aI28
aI160
aI173
aI0
aI44
aI0
aI336
aI347
aI212
aI163
aI150
aI88
aI324
aI346
aI332
aI319
aI41
aI204
aI258
aI335
aI38
aI339
aI226
aI226
aI313
aI342
aI203
aI151
aI248
aI0
aI320
aI338
aI329
aI30
aI321
aI323
aI34
aI49
aI25
aI301
aI99
aI74
aI18
aI16
aI41
aI28
aI271
aI133
aI344
aI0
aI196
aI94
aI38
aI136
aI156
aI0
aI0
aI34
aI180
aI25
aI340
aI76
aI199
aI70
aI204
aI198
aI0
aI256
aI56
aI334
aI35
aI41
aI224
aI330
aI26
aI39
aI243
aI334
aI8
aI162
aI346
aI73
aI330
aI327
aI339
aI310
aI317
aI65
aI298
aI308
aI105
aI32
aI305
aI322
aI319
aI21
aI40
aI322
aI36
aI109
aI66
aI252
aI62
aI343
aI142
aI0
aI326
aI336
aI112
aI0
aI154
aI131
aI44
aI19
aI150
aI43
aI248
aI187
aI266
aI244
aI73
aI58
aI340
aI346
aI297
aI309
aI32
aI292
aI338
aI67
aI331
aI242
aI127
aI247
aI290
aI64
aI344
aI209
aI326
aI292
aI15
aI297
aI299
aI111
aI134
aI0
aI342
aI334
aI315
aI333
aI348
aI201
aI158
aI19
aI322
aI297
aI341
aI40
aI157
aI230
aI334
aI32
aI0
aI27
aI73
aI221
aI30
aI345
aI252
aI320
aI149
aI342
aI51
aI109
aI135
aI177
aI71
aI30
aI107
aI152
aI313
aI259
aI110
aI182
aI35
aI108
aI172
aI307
aI339
aI340
aI23
aI268
aI111
aI39
aI22
aI268
aI110
aI15
aI143
aI180
aI25
aI71
aI13
aI321
aI62
aI182
aI260
aI53
aI21
aI152
aI207
aI21
aI72
aI219
aI83
aI203
aI165
aI318
aI41
aI91
aI1
aI52
aI35
aI144
aI75
aI73
aI328
aI35
aI301
aI252
aI78
aI38
aI328
aI35
aI49
aI289
aI18
aI31
aI39
aI302
aI153
aI340
aI179
aI18
aI210
aI330
aI33
aI108
aI328
aI92
aI312
aI39
aI291
aI102
aI33
aI67
aI26
aI112
aI342
aI140
aI0
aI308
aI342
aI299
aI252
aI332
aI92
aI340
aI332
aI332
aI31
aI34
aI340
aI83
aI108
aI180
aI346
aI26
aI336
aI34
aI20
aI335
aI144
aI116
aI30
aI335
aI112
aI324
aI338
aI135
aI61
aI28
aI22
aI227
aI249
aI62
aI289
aI179
aI329
aI148
aI25
aI346
aI223
aI36
aI298
aI25
aI296
aI67
aI103
aI64
aI325
aI325
aI207
aI298
aI250
aI301
aI145
aI138
aI325
aI297
aI212
aI21
aI229
aI19
aI71
aI39
aI20
aI131
aI310
aI23
aI26
aI42
aI329
aI329
aI137
aI152
aI173
aI28
aI41
aI38
aI30
aI5
aI210
aI304
aI331
aI22
aI225
aI333
aI339
aI71
aI75
aI32
aI24
aI20
aI28
aI48
aI214
aI341
aI334
aI24
aI282
aI321
aI258
aI327
aI47
aI110
aI29
aI313
aI344
aI131
aI72
aI31
aI20
aI32
aI290
aI159
aI207
aI196
aI318
aI217
aI201
aI92
aI335
aI26
aI30
aI327
aI201
aI288
aI291
aI349
aI34
aI248
aI294
aI107
aI37
aI306
aI50
aI40
aI159
aI342
aI50
aI317
aI105
aI317
aI343
aI23
aI331
aI334
aI330
aI328
aI123
aI329
aI147
aI289
aI65
aI48
aI296
aI234
aI323
aI37
aI197
aI98
aI120
aI323
aI72
aI342
aI301
aI32
aI318
aI106
aI343
aI277
aI318
aI336
aI291
aI331
aI326
aI317
aI25
aI43
aI312
aI308
aI77
aI47
aI12
aI325
aI36
aI95
aI58
aI320
aI21
aI0
aI204
aI35
aI286
aI294
aI336
aI24
aI27
aI326
aI20
aI203
aI100
aI160
aI134
aI17
aI37
aI1
aI76
aI22
aI0
aI60
aI17
aI1
aI304
aI312
aI284
aI178
aI0
aI325
aI12
aI135
aI115
aI186
aI331
aI0
aI35
aI251
aI115
aI155
aI17
aI53
aI293
aI0
aI0
aI99
aI283
aI333
aI152
aI289
aI208
aI32
aI339
aI179
aI45
aI129
aI147
aI31
aI19
aI122
aI37
aI16
aI36
aI343
aI18
aI342
aI113
aI343
aI354
aI69
aI285
aI336
aI344
aI159
aI29
aI291
aI23
aI222
aI34
aI83
aI199
aI112
aI257
aI194
aI124
aI36
aI143
aI166
aI211
aI68
aI37
aI59
aI10
aI332
aI323
aI322
aI335
aI52
aI26
aI135
aI261
aI179
aI50
aI256
aI90
aI169
aI349
aI330
aI336
aI57
aI25
aI341
aI305
aI107
aI342
aI248
aI20
aI47
aI38
aI65
aI59
aI6
aI292
aI52
aI177
aI0
aI27
aI348
aI303
aI30
aI140
aI29
aI328
aI249
aI17
aI151
aI334
aI337
aI332
aI169
aI102
aI70
aI39
aI315
aI23
aI199
aI97
aI284
aI112
aI57
aI305
aI140
aI67
aI300
aI278
aI199
aI335
aI277
aI200
aI180
aI320
aI79
aI324
aI334
aI59
aI30
aI245
aI54
aI341
aI39
aI309
aI28
aI64
aI335
aI343
aI322
aI345
aI337
aI163
aI33
aI70
aI82
aI101
aI327
aI328
aI325
aI14
aI334
aI183
aI283
aI336
aI309
aI313
aI162
aI32
aI73
aI134
aI318
aI17
aI320
aI123
aI281
aI13
aI51
aI24
aI37
aI142
aI100
aI66
aI302
aI348
aI144
aI20
aI1
aI312
aI37
aI200
aI208
aI318
aI11
aI274
aI295
aI26
aI155
aI311
aI210
aI8
aI284
aI323
aI333
aI72
aI315
aI29
aI94
aI177
aI110
aI103
aI310
aI25
aI330
aI11
aI179
aI29
aI37
aI198
aI151
aI264
aI260
aI338
aI114
aI142
aI148
aI218
aI332
aI55
aI337
aI338
aI15
aI67
aI330
aI267
aI21
aI292
aI24
aI124
aI310
aI0
aI155
aI0
aI44
aI43
aI337
aI281
aI40
aI340
aI50
aI27
aI249
aI319
aI37
aI294
aI62
aI337
aI61
aI26
aI54
aI231
aI112
aI62
aI239
aI163
aI242
aI341
aI338
aI100
aI32
aI52
aI249
aI234
aI280
aI26
aI332
aI136
aI245
aI48
aI248
aI17
aI333
aI50
aI308
aI30
aI49
aI290
aI242
aI18
aI28
aI323
aI161
aI211
aI20
aI324
aI0
aI341
aI336
aI33
aI325
aI341
aI61
aI336
aI32
aI39
aI338
aI316
aI147
aI350
aI39
aI101
aI339
aI136
aI240
aI150
aI244
aI299
aI305
aI29
aI17
aI74
aI21
aI52
aI157
aI337
aI70
aI322
aI325
aI189
aI67
aI16
aI159
aI340
aI234
aI23
aI200
aI326
aI327
aI0
aI292
aI32
aI0
aI78
aI26
aI148
aI229
aI179
aI168
aI34
aI317
aI57
aI326
aI18
aI248
aI46
aI18
aI36
aI179
aI68
aI317
aI29
aI111
aI221
aI105
aI54
aI199
aI166
aI0
aI35
aI354
aI326
aI179
aI45
aI68
aI335
aI27
aI0
aI323
aI336
aI145
aI18
aI236
aI39
aI111
aI329
aI159
aI112
aI335
aI29
aI278
aI15
aI34
aI33
aI215
aI145
aI47
aI49
aI44
aI33
aI54
aI333
aI340
aI22
aI289
aI29
aI80
aI78
aI110
aI237
aI201
aI350
aI46
aI170
aI344
aI68
aI31
aI195
aI138
aI179
aI4
aI298
aI17
aI250
aI319
aI19
aI305
aI329
aI251
aI0
aI344
aI155
aI104
aI45
aI223
aI299
aI150
aI242
aI313
aI30
aI24
aI31
aI51
aI343
aI181
aI33
aI109
aI338
aI188
aI316
aI318
aI260
aI111
aI34
aI22
aI111
aI284
aI29
aI108
aI33
aI12
aI333
aI319
aI308
aI28
aI337
aI0
aI339
aI217
aI295
aI178
aI323
aI16
aI199
aI337
aI45
aI4
aI346
aI333
aI110
aI13
aI334
aI256
aI343
aI23
aI106
aI123
aI327
aI77
aI17
aI87
aI27
aI262
aI304
aI304
aI329
aI62
aI22
aI28
aI346
aI163
aI132
aI35
aI336
aI35
aI38
aI343
aI35
aI43
aI0
aI22
aI57
aI268
aI32
aI25
aI29
aI113
aI329
aI22
aI64
aI126
aI32
aI35
aI28
aI289
aI336
aI329
aI163
aI181
aI172
aI301
aI92
aI331
aI236
aI205
aI329
aI144
aI141
aI44
aI340
aI64
aI50
aI43
aI327
aI214
aI333
aI334
aI325
aI28
aI27
aI177
aI266
aI146
aI52
aI30
aI159
aI263
aI20
aI253
aI245
aI54
aI30
aI107
aI47
aI67
aI16
aI24
aI203
aI16
aI338
aI129
aI26
aI296
aI188
aI151
aI123
aI330
aI53
aI329
aI328
aI30
aI335
aI236
aI157
aI312
aI31
aI54
aI39
aI179
aI111
aI324
aI0
aI348
aI299
aI219
aI226
aI322
aI43
aI327
aI313
aI195
aI157
aI173
aI93
aI301
aI315
aI40
aI180
aI46
aI322
aI317
aI22
aI65
aI67
aI328
aI179
aI197
aI178
aI219
aI31
aI291
aI79
aI107
aI54
aI110
aI221
aI347
aI352
aI306
aI26
aI284
aI38
aI203
aI32
aI341
aI336
aI36
aI42
aI143
aI57
aI57
aI88
aI334
aI308
aI291
aI16
aI334
aI341
aI49
aI16
aI13
aI25
aI29
aI25
aI313
aI257
aI282
aI26
aI125
aI19
aI83
aI336
aI50
aI224
aI67
aI11
aI180
aI169
aI36
aI324
aI312
aI21
aI15
aI34
aI179
aI264
aI323
aI340
aI335
aI70
aI1
aI242
aI43
aI17
aI32
aI322
aI236
aI332
aI81
aI330
aI297
aI139
aI154
aI38
aI223
aI36
aI342
aI199
aI38
aI311
aI299
aI226
aI219
aI51
aI278
aI28
aI112
aI225
aI319
aI97
aI216
aI109
aI62
aI215
aI330
aI343
aI32
aI70
aI13
aI36
aI219
aI160
aI200
aI111
aI178
aI331
aI70
aI31
aI321
aI203
aI304
aI30
aI182
aI165
aI328
aI109
aI132
aI248
aI333
aI341
aI335
aI16
aI335
aI262
aI57
aI47
aI345
aI320
aI45
aI252
aI178
aI30
aI36
aI92
aI141
aI169
aI211
aI335
aI298
aI282
aI31
aI0
aI53
aI38
aI286
aI297
aI310
aI77
aI322
aI125
aI162
aI45
aI20
aI124
aI225
aI69
aI316
aI103
aI153
aI156
aI142
aI116
aI238
aI298
aI211
aI34
aI63
aI325
aI24
aI11
aI16
aI100
aI290
aI27
aI182
aI339
aI29
aI48
aI321
aI243
aI29
aI149
aI109
aI87
aI267
aI94
aI345
aI342
aI67
aI342
aI197
aI58
aI33
aI340
aI304
aI267
aI109
aI240
aI122
aI342
aI30
aI350
aI35
aI96
aI0
aI1
aI2
aI257
aI8
aI20
aI180
aI130
aI235
aI302
aI23
aI344
aI109
aI57
aI297
aI321
aI35
aI173
aI260
aI51
aI330
aI35
aI292
aI10
aI194
aI217
aI308
aI14
aI326
aI178
aI311
aI255
aI104
aI26
aI22
aI34
aI25
aI180
aI337
aI334
aI22
aI111
aI126
aI27
aI1
aI228
aI241
aI170
aI319
aI324
aI336
aI180
aI27
aI158
aI171
aI329
aI23
aI324
aI286
aI21
aI100
aI36
aI19
aI334
aI70
aI33
aI329
aI146
aI90
aI348
aI327
aI0
aI324
aI19
aI296
aI77
aI44
aI101
aI181
aI82
aI241
aI345
aI212
aI42
aI331
aI249
aI198
aI351
aI56
aI23
aI318
aI12
aI329
aI304
aI345
aI30
aI204
aI21
aI2
aI23
aI247
aI60
aI122
aI42
aI332
aI291
aI306
aI195
aI306
aI43
aI297
aI73
aI308
aI39
aI346
aI222
aI18
aI339
aI130
aI244
aI0
aI312
aI38
aI284
aI317
aI351
aI344
aI326
aI47
aI157
aI247
aI311
aI21
aI161
aI1
aI325
aI29
aI298
aI287
aI355
aI266
aI182
aI10
aI145
aI74
aI37
aI307
aI221
aI104
aI26
aI79
aI324
aI154
aI217
aI0
aI311
aI180
aI15
aI339
aI67
aI279
aI107
aI0
aI322
aI332
aI144
aI324
aI279
aI325
aI322
aI169
aI18
aI57
aI0
aI144
aI22
aI29
aI35
aI23
aI354
aI319
aI157
aI21
aI204
aI55
aI213
aI31
aI224
aI158
aI302
aI335
aI45
aI340
aI144
aI156
aI333
aI0
aI6
aI33
aI85
aI297
aI202
aI257
aI235
aI156
aI251
aI14
aI249
aI330
aI35
aI214
aI325
aI326
aI336
aI17
aI35
aI27
aI337
aI318
aI306
aI263
aI12
aI346
aI339
aI65
aI346
aI338
aI217
aI39
aI22
aI35
aI344
aI23
aI138
aI329
aI24
aI340
aI158
aI135
aI58
aI29
aI292
aI21
aI2
aI24
aI336
aI330
aI27
aI48
aI110
aI25
aI239
aI214
aI329
aI30
aI47
aI332
aI271
aI0
aI26
aI45
aI290
aI339
aI214
aI168
aI338
aI302
aI124
aI33
asS'pottedplant'
p32
(lp33
sS'tvmonitor'
p34
(lp35
I22
aI10
aI333
aI337
aI9
aI342
aI0
aI19
aI39
aI336
aI72
aI25
aI12
aI59
aI10
aI88
aI3
aI5
aI54
aI50
aI0
aI28
aI69
aI309
aI9
aI44
aI129
aI6
aI25
aI70
aI9
aI343
aI6
aI24
aI333
aI295
aI299
aI0
aI94
aI12
aI0
aI12
aI10
aI338
aI181
aI2
aI2
aI307
aI9
aI46
aI9
aI9
aI359
aI340
aI0
aI7
aI290
aI343
aI0
aI350
aI10
aI337
aI329
aI11
aI10
aI300
aI301
aI332
aI40
aI345
aI60
aI354
aI30
aI22
aI15
aI8
aI301
aI334
aI76
aI65
aI5
aI9
aI334
aI350
aI21
aI0
aI37
aI6
aI350
aI14
aI9
aI8
aI4
aI327
aI341
aI22
aI46
aI340
aI9
aI10
aI1
aI10
aI27
aI309
aI340
aI3
aI0
aI292
aI23
aI327
aI10
aI285
aI316
aI183
aI0
aI1
aI32
aI16
aI35
aI4
aI295
aI8
aI327
aI337
aI255
aI20
aI325
aI87
aI11
aI9
aI332
aI0
aI15
aI37
aI10
aI9
aI5
aI316
aI22
aI22
aI12
aI0
aI317
aI10
aI312
aI317
aI28
aI341
aI335
aI22
aI0
aI332
aI30
aI0
aI30
aI334
aI18
aI330
aI1
aI9
aI324
aI79
aI9
aI50
aI39
aI197
aI125
aI331
aI359
aI307
aI311
aI324
aI38
aI23
aI336
aI5
aI22
aI10
aI0
aI349
aI23
aI2
aI317
aI139
aI123
aI329
aI78
aI305
aI301
aI6
aI44
aI9
aI8
aI318
aI325
aI43
aI348
aI35
aI8
aI47
aI289
aI44
aI44
aI36
aI0
aI2
aI0
aI17
aI352
aI14
aI52
aI333
aI0
aI29
aI0
aI76
aI46
aI29
aI21
aI20
aI11
aI333
aI37
aI30
aI18
aI337
aI9
aI5
aI338
aI17
aI343
aI21
aI322
aI27
aI9
aI10
aI71
aI22
aI355
aI330
aI71
aI343
aI346
aI11
aI350
aI14
aI9
aI57
aI340
aI15
aI337
aI347
aI8
aI334
aI330
aI305
aI9
aI27
aI22
aI30
aI344
aI2
aI141
aI1
aI48
aI332
aI328
aI350
aI353
aI356
aI351
aI353
aI351
aI1
aI357
aI353
aI346
aI322
aI323
aI308
aI318
aI324
aI251
aI212
aI229
aI16
aI61
aI22
aI49
aI100
aI327
aI339
aI8
aI348
aI11
aI46
aI168
aI39
aI22
aI349
aI327
aI332
aI2
aI22
aI355
aI21
aI311
aI1
aI7
aI0
aI180
aI315
aI0
aI54
aI5
aI352
aI5
aI18
aI16
aI334
aI323
aI3
aI30
aI3
aI151
aI60
aI8
aI180
aI0
aI4
aI337
aI20
aI10
aI47
aI5
aI337
aI11
aI281
aI347
aI342
aI19
aI340
aI3
aI2
aI3
aI334
aI342
aI27
aI332
aI65
aI7
aI356
aI3
aI10
aI2
aI0
aI328
aI10
aI16
aI3
aI41
aI52
aI59
aI339
aI10
aI19
aI339
aI349
aI86
aI359
aI4
aI290
aI3
aI26
aI27
aI341
aI22
aI4
aI16
aI0
aI22
aI3
aI10
aI0
aI10
aI22
aI22
aI13
aI5
aI9
aI6
aI336
aI34
aI6
aI16
aI335
aI33
aI351
aI352
aI4
aI9
aI8
aI59
aI309
aI125
aI98
aI312
aI264
aI354
aI9
aI335
aI10
aI317
aI36
aI22
aI25
aI23
aI23
aI343
aI321
aI0
aI346
aI1
aI317
aI0
aI6
aI0
aI320
aI0
aI23
aI343
aI342
aI1
aI28
aI0
aI333
aI8
aI0
aI18
aI0
aI0
aI0
aI22
aI0
aI27
aI6
aI61
aI19
aI0
aI0
aI33
aI3
aI308
aI24
aI1
aI301
aI17
aI1
aI311
aI29
aI341
aI0
aI6
aI1
aI327
aI1
aI0
aI4
aI1
aI34
aI1
aI22
aI22
aI14
aI20
aI33
aI321
aI22
aI0
aI329
aI313
aI13
aI0
aI307
aI0
aI334
aI20
aI346
aI6
aI359
aI10
aI342
aI0
aI28
aI0
aI297
aI29
aI3
aI338
aI355
aI4
aI0
aI344
aI0
aI336
aI356
aI339
aI359
aI335
aI22
aI0
aI0
aI0
aI348
aI6
aI345
aI1
aI0
aI1
aI10
aI277
aI0
aI317
aI337
aI4
aI337
aI327
aI0
aI10
aI35
aI32
aI350
aI0
aI331
aI22
aI24
aI0
aI359
aI355
aI0
aI0
aI332
aI6
aI0
aI1
aI4
aI321
aI334
aI355
aI31
aI3
aI53
aI1
aI348
aI11
aI356
aI0
aI2
aI332
aI12
aI19
aI6
aI21
aI0
aI332
aI2
aI328
aI0
aI357
aI25
aI0
aI0
aI0
aI0
aI22
aI329
aI327
aI0
aI328
aI341
aI323
aI22
aI0
aI22
aI293
aI31
aI22
aI0
aI0
aI5
aI335
aI358
aI0
aI334
aI0
aI344
aI305
aI5
aI2
aI0
aI0
aI5
aI23
aI355
aI332
aI50
aI75
aI5
aI2
aI0
aI2
aI359
aI0
aI0
aI4
aI22
aI344
aI0
aI244
aI6
aI22
aI324
aI359
aI0
aI13
aI22
aI344
aI16
aI0
aI335
aI0
aI29
aI9
aI5
aI0
aI17
aI344
aI358
aI2
aI35
aI5
aI317
aI11
aI0
aI356
aI21
aI22
aI22
aI332
aI18
aI17
aI0
aI32
aI15
aI307
aI1
aI342
aI19
aI338
aI339
aI21
aI0
aI0
aI72
aI314
aI45
aI327
aI0
aI296
aI0
aI337
aI71
aI1
aI1
aI10
aI359
aI11
aI0
aI331
aI347
aI22
aI0
aI327
aI15
aI18
aI359
aI47
aI0
aI24
aI22
aI349
aI32
aI0
aI314
aI17
aI345
aI3
aI26
aI310
aI11
aI0
aI0
aI8
aI0
aI0
aI56
aI0
aI359
aI45
aI0
aI0
aI0
aI10
aI0
aI0
aI322
aI15
aI335
aI0
aI17
aI353
aI0
aI343
aI317
aI3
aI19
aI32
aI42
aI22
aI22
aI17
aI14
aI2
aI357
aI1
aI0
aI21
aI35
aI26
aI0
aI0
aI359
aI357
aI0
aI33
aI45
aI0
aI297
aI38
aI3
aI0
aI2
aI22
aI14
aI359
aI17
aI0
aI0
aI0
aI353
aI0
aI6
aI327
aI6
aI5
aI1
aI327
aI22
aI32
aI6
aI0
aI37
aI331
aI83
aI0
aI325
aI24
aI343
aI43
aI280
aI20
aI32
aI322
aI21
aI0
aI332
aI20
aI355
aI29
aI299
aI349
aI22
aI0
aI0
aI37
aI0
aI0
aI6
aI359
aI26
aI331
aI9
aI5
aI0
aI0
aI0
aI0
aI10
aI0
aI48
aI0
aI0
aI316
aI41
aI0
aI343
aI21
aI352
aI22
aI359
aI0
aI30
aI40
aI13
aI3
aI357
aI58
aI302
aI336
aI22
aI310
aI31
aI0
aI22
aI0
aI347
aI45
aI359
aI0
aI7
aI313
aI13
aI31
aI4
aI5
aI336
aI2
aI7
aI22
aI359
aI4
aI6
aI7
aI1
aI0
aI0
aI0
aI0
aI10
aI354
aI0
aI0
aI2
aI17
aI7
aI343
aI57
aI339
aI322
aI22
aI1
aI0
aI178
aI338
aI0
aI338
aI2
aI0
aI336
aI6
aI22
aI0
aI319
aI0
aI326
aI338
aI342
aI359
aI51
aI31
aI5
aI0
aI22
aI22
aI5
aI315
aI19
aI323
aI0
aI356
aI340
aI358
aI0
aI332
aI32
aI0
aI332
aI355
aI22
aI7
aI0
aI28
aI0
aI322
aI7
aI357
aI0
aI25
aI1
aI315
aI25
aI0
aI6
aI0
aI323
aI0
aI333
aI6
aI359
aI327
aI59
aI0
aI5
aI1
aI312
aI42
aI356
aI1
aI31
aI0
aI0
aI49
aI5
aI359
aI0
aI357
aI18
aI322
aI22
aI321
aI0
aI0
aI22
aI27
aI324
aI5
aI332
aI337
aI0
aI346
aI12
aI22
aI25
aI12
aI338
aI358
aI0
aI333
aI49
aI0
aI58
aI22
aI43
aI0
aI3
aI325
aI6
aI32
aI3
aI334
aI42
aI0
aI5
aI22
aI0
aI352
aI317
aI317
aI0
aI5
aI346
aI27
aI13
aI341
aI22
aI29
aI2
aI325
aI0
aI305
aI335
aI0
aI332
aI3
aI338
aI32
aI11
aI16
aI31
aI327
aI38
aI9
aI334
aI0
aI63
aI358
aI6
aI22
aI4
aI22
aI3
aI356
aI317
aI0
aI47
aI349
aI1
aI1
aI319
aI36
aI16
aI349
aI0
aI310
aI17
aI0
aI4
aI0
aI34
aI0
aI55
aI287
aI1
aI2
aI0
aI22
aI5
aI6
aI0
aI20
aI1
aI11
aI16
aI0
aI6
aI327
aI32
aI5
aI22
aI0
aI327
aI6
aI356
aI1
aI337
aI0
aI12
aI4
aI2
aI27
aI10
aI310
aI10
aI321
aI7
aI12
aI347
aI355
aI304
aI40
aI341
aI0
aI22
aI32
aI0
aI22
aI15
aI13
aI50
aI0
aI22
aI356
aI357
aI62
aI17
aI0
aI321
aI7
aI0
aI1
aI11
aI0
aI0
aI0
aI37
aI7
aI320
aI326
aI352
aI316
aI28
aI1
aI1
aI316
aI352
aI0
aI0
aI334
aI10
aI0
aI0
aI359
aI0
aI335
aI0
aI298
aI32
aI3
aI3
aI0
aI3
aI1
aI345
aI326
aI0
aI1
aI357
aI42
aI5
aI52
aI22
aI2
aI55
aI349
aI38
aI346
aI0
aI0
aI19
aI2
aI11
aI348
aI0
aI326
aI0
aI1
aI324
aI359
aI0
aI339
aI22
aI10
aI359
aI0
aI0
aI348
aI306
aI7
aI11
aI318
aI0
aI22
aI22
aI0
aI0
aI7
aI11
aI0
aI333
aI0
aI1
aI0
aI31
aI1
aI334
aI32
aI343
aI359
aI0
aI348
aI329
aI5
aI0
aI5
aI32
aI22
aI1
aI49
aI0
aI3
aI0
aI359
aI42
aI22
aI3
aI18
aI0
aI0
aI334
aI4
aI22
aI341
aI312
aI321
aI28
aI41
aI280
aI5
aI336
aI344
aI9
aI8
aI0
aI0
aI321
aI328
aI0
aI337
aI0
aI7
aI0
aI325
aI38
aI1
aI22
aI18
aI333
aI0
aI344
aI10
aI337
aI0
aI32
aI337
aI0
aI10
aI311
aI0
aI38
aI0
aI1
aI0
aI52
aI22
aI1
aI2
aI329
aI27
aI0
aI34
aI22
aI15
aI0
aI307
aI1
aI22
aI0
aI0
aI31
aI359
aI325
aI329
aI22
aI1
aI40
aI51
aI1
aI324
aI22
aI22
aI7
aI0
aI21
aI13
aI2
aI0
aI0
aI0
aI329
aI358
aI353
aI0
aI19
aI5
aI3
aI0
aI329
aI6
aI6
aI23
aI5
aI327
aI22
aI18
aI0
aI338
aI325
aI348
aI0
aI346
aI22
aI0
aI3
aI29
aI333
aI336
aI332
aI0
aI0
aI340
aI22
aI24
aI22
aI33
aI359
aI353
aI0
aI332
aI22
aI327
aI22
aI0
aI2
aI0
aI359
aI335
aI340
aI2
aI6
aI0
aI4
aI337
aI330
aI3
aI2
aI306
aI0
aI342
aI22
aI10
aI337
aI27
aI348
aI357
aI1
aI334
aI22
aI342
aI39
aI4
aI0
aI0
aI1
aI1
aI31
aI356
aI1
aI22
aI312
aI6
aI6
aI0
aI286
aI1
aI0
aI25
aI313
aI53
aI279
aI32
aI308
aI16
aI341
aI22
aI343
aI0
aI14
aI359
aI0
aI0
aI343
aI22
aI1
aI0
aI358
aI0
aI32
aI32
aI331
aI350
aI343
aI334
aI40
aI0
aI319
aI343
aI22
aI339
aI0
aI27
aI303
aI22
aI2
aI2
aI35
aI12
aI5
aI17
aI2
aI0
aI70
aI0
aI5
aI5
aI0
aI0
aI0
aI357
aI5
aI10
aI359
aI2
aI356
aI354
aI0
aI340
aI0
aI0
aI2
aI0
aI6
aI0
aI337
aI25
aI300
aI0
aI19
aI18
aI0
aI13
aI350
aI31
aI26
aI0
aI327
aI353
aI22
aI0
aI315
aI18
aI13
aI0
aI25
aI0
aI22
aI345
aI0
aI328
aI22
aI16
aI0
aI0
aI12
aI312
aI0
aI22
aI322
aI3
aI22
aI20
aI0
aI0
aI22
aI355
aI326
aI359
aI1
aI11
aI14
aI0
aI6
aI0
aI22
aI344
aI2
aI330
aI5
aI6
aI320
aI23
aI342
aI305
aI33
aI22
aI0
aI351
aI0
aI32
aI0
aI61
aI0
aI76
aI0
aI12
aI0
aI11
aI0
aI345
aI21
aI2
aI0
aI7
aI22
aI4
aI2
aI304
aI349
aI1
aI23
aI340
aI0
aI5
aI0
aI316
aI37
aI86
aI31
aI337
aI36
aI0
aI6
aI1
aI2
aI0
aI349
aI0
aI41
aI10
aI0
aI359
aI330
aI60
aI330
aI22
aI0
aI0
aI10
aI0
aI342
aI332
aI5
aI18
aI323
aI22
aI9
aI319
aI327
aI0
aI1
aI44
aI1
aI22
aI0
aI359
aI0
aI0
aI0
aI347
aI0
aI22
aI359
aI34
aI0
aI23
aI0
aI0
aI6
aI19
aI330
aI0
aI4
aI335
aI6
aI0
aI321
aI1
aI334
aI0
aI337
aI359
aI339
aI0
aI304
aI0
aI5
aI38
aI16
aI335
aI0
aI10
aI359
aI323
aI3
aI359
aI0
aI343
aI10
aI1
aI33
aI347
aI14
aI322
aI22
aI2
aI359
aI10
aI0
aI10
aI25
aI3
aI0
aI1
aI346
aI1
aI1
aI42
aI299
aI349
aI21
aI33
aI0
aI331
aI4
aI0
aI1
aI20
aI0
aI22
aI5
aI0
aI329
aI337
aI0
aI22
aI0
aI0
aI0
aI67
aI11
aI6
aI49
aI0
aI325
aI331
asS'chair'
p36
(lp37
I0
aI337
aI0
aI357
aI0
aI54
aI183
aI27
aI320
aI105
aI94
aI188
aI34
aI125
aI224
aI333
aI340
aI81
aI78
aI58
aI338
aI29
aI7
aI308
aI297
aI97
aI23
aI11
aI6
aI0
aI353
aI343
aI187
aI14
aI10
aI354
aI334
aI229
aI149
aI75
aI281
aI71
aI78
aI32
aI352
aI270
aI260
aI37
aI98
aI342
aI340
aI344
aI318
aI320
aI18
aI312
aI101
aI10
aI338
aI186
aI218
aI225
aI332
aI98
aI75
aI7
aI348
aI24
aI14
aI295
aI178
aI169
aI14
aI13
aI174
aI6
aI5
aI293
aI185
aI178
aI73
aI0
aI319
aI8
aI184
aI308
aI286
aI260
aI263
aI267
aI0
aI123
aI36
aI160
aI270
aI178
aI27
aI346
aI315
aI314
aI39
aI50
aI185
aI235
aI0
aI24
aI82
aI183
aI286
aI0
aI4
aI299
aI306
aI266
aI266
aI145
aI59
aI55
aI350
aI18
aI60
aI355
aI351
aI10
aI31
aI96
aI47
aI195
aI21
aI329
aI332
aI0
aI61
aI337
aI115
aI242
aI86
aI80
aI338
aI55
aI260
aI135
aI80
aI298
aI295
aI312
aI157
aI34
aI341
aI244
aI10
aI24
aI51
aI49
aI311
aI279
aI279
aI269
aI246
aI253
aI72
aI105
aI350
aI346
aI14
aI65
aI36
aI340
aI71
aI349
aI74
aI33
aI182
aI88
aI232
aI334
aI56
aI358
aI237
aI347
aI340
aI282
aI293
aI276
aI144
aI347
aI323
aI317
aI159
aI75
aI20
aI253
aI254
aI260
aI131
aI238
aI245
aI329
aI49
aI49
aI337
aI259
aI134
aI256
aI0
aI340
aI356
aI350
aI20
aI325
aI312
aI104
aI343
aI62
aI323
aI337
aI251
aI73
aI350
aI0
aI23
aI280
aI1
aI335
aI23
aI346
aI330
aI170
aI163
aI53
aI0
aI4
aI0
aI1
aI43
aI245
aI193
aI98
aI178
aI78
aI278
aI280
aI18
aI312
aI200
aI21
aI70
aI40
aI48
aI357
aI165
aI16
aI295
aI19
aI105
aI280
aI200
aI63
aI268
aI265
aI33
aI222
aI111
aI233
aI252
aI324
aI39
aI40
aI40
aI213
aI221
aI325
aI118
aI52
aI45
aI251
aI302
aI215
aI14
aI338
aI62
aI2
aI16
aI297
aI312
aI311
aI16
aI114
aI217
aI320
aI20
aI238
aI332
aI180
aI13
aI116
aI85
aI95
aI320
aI331
aI19
aI314
aI11
aI200
aI215
aI114
aI19
aI305
aI122
aI316
aI52
aI0
aI68
aI16
aI346
aI349
aI96
aI297
aI126
aI50
aI142
aI249
aI341
aI55
aI313
aI313
aI325
aI48
aI192
aI240
aI135
aI338
aI39
aI320
aI344
aI15
aI0
aI263
aI327
aI247
aI124
aI27
aI326
aI209
aI212
aI22
aI43
aI345
aI15
aI321
aI329
aI190
aI35
aI159
aI344
aI250
aI67
aI55
aI265
aI9
aI12
aI187
aI177
aI84
aI164
aI75
aI9
aI123
aI254
aI79
aI103
aI29
aI60
aI103
aI307
aI43
aI348
aI120
aI352
aI13
aI335
aI110
aI0
aI279
aI167
aI212
aI243
aI58
aI240
aI315
aI325
aI120
aI310
aI288
aI126
aI303
aI95
aI33
aI0
aI104
aI57
aI0
aI357
aI73
aI53
aI280
aI290
aI8
aI194
aI335
aI76
aI207
aI247
aI27
aI53
aI222
aI207
aI4
aI190
aI239
aI1
aI14
aI289
aI203
aI355
aI54
aI321
aI323
aI243
aI325
aI0
aI349
aI3
aI285
aI187
aI81
aI300
aI40
aI350
aI74
aI16
aI214
aI318
aI344
aI345
aI14
aI287
aI282
aI245
aI265
aI190
aI181
aI14
aI343
aI4
aI55
aI308
aI69
aI173
aI158
aI165
aI65
aI13
aI4
aI9
aI5
aI7
aI144
aI5
aI9
aI175
aI210
aI4
aI26
aI237
aI348
aI67
aI285
aI52
aI315
aI340
aI28
aI35
aI344
aI13
aI69
aI338
aI218
aI139
aI92
aI30
aI352
aI1
aI7
aI130
aI224
aI309
aI41
aI275
aI344
aI312
aI25
aI34
aI6
aI92
aI207
aI241
aI25
aI73
aI252
aI353
aI199
aI175
aI210
aI141
aI299
aI303
aI345
aI15
aI64
aI102
aI146
aI324
aI351
aI297
aI305
aI220
aI100
aI309
aI219
aI52
aI2
aI0
aI5
aI275
aI19
aI51
aI16
aI15
aI325
aI30
aI34
aI339
aI234
aI114
aI314
aI179
aI101
aI43
aI127
aI289
aI227
aI301
aI97
aI355
aI235
aI45
aI20
aI181
aI330
aI120
aI209
aI166
aI208
aI34
aI356
aI64
aI345
aI330
aI56
aI319
aI244
aI234
aI47
aI36
aI112
aI352
aI329
aI238
aI194
aI302
aI150
aI329
aI351
aI139
aI315
aI309
aI305
aI323
aI117
aI125
aI241
aI240
aI153
aI147
aI137
aI194
aI318
aI53
aI7
aI7
aI124
aI36
aI47
aI329
aI240
aI229
aI31
aI359
aI206
aI283
aI218
aI264
aI54
aI3
aI322
aI235
aI5
aI180
aI340
aI9
aI84
aI217
aI216
aI130
aI139
aI85
aI307
aI270
aI161
aI0
aI21
aI20
aI330
aI332
aI312
aI270
aI342
aI181
aI213
aI335
aI45
aI352
aI22
aI245
aI324
aI325
aI199
aI289
aI348
aI59
aI79
aI201
aI190
aI87
aI297
aI57
aI113
aI198
aI294
aI150
aI279
aI187
aI102
aI88
aI290
aI152
aI85
aI277
aI79
aI238
aI255
aI72
aI278
aI285
aI45
aI269
aI85
aI253
aI182
aI287
aI238
aI332
aI170
aI180
aI5
aI333
aI66
aI348
aI21
aI40
aI330
aI250
aI231
aI125
aI0
aI6
aI352
aI52
aI33
aI293
aI132
aI268
aI0
aI60
aI62
aI57
aI27
aI6
aI54
aI104
aI240
aI43
aI110
aI9
aI16
aI5
aI239
aI118
aI329
aI159
aI202
aI56
aI75
aI302
aI353
aI32
aI284
aI75
aI355
aI68
aI300
aI341
aI106
aI252
aI345
aI259
aI32
aI33
aI276
aI179
aI6
aI70
aI337
aI240
aI7
aI13
aI175
aI246
aI30
aI1
aI71
aI87
aI305
aI88
aI79
aI232
aI9
aI170
aI247
aI241
aI70
aI73
aI77
aI10
aI41
aI0
aI350
aI327
aI20
aI95
aI355
aI72
aI264
aI47
aI61
aI251
aI249
aI77
aI208
aI69
aI115
aI341
aI10
aI272
aI74
aI271
aI193
aI200
aI39
aI6
aI12
aI269
aI33
aI155
aI169
aI75
aI3
aI0
aI6
aI175
aI273
aI332
aI123
aI190
aI3
aI298
aI6
aI17
aI309
aI12
aI0
aI95
aI90
aI276
aI12
aI230
aI131
aI125
aI332
aI54
aI38
aI187
aI18
aI18
aI184
aI141
aI83
aI248
aI330
aI334
aI17
aI319
aI83
aI14
aI68
aI221
aI264
aI41
aI12
aI285
aI75
aI0
aI314
aI17
aI4
aI284
aI300
aI205
aI92
aI15
aI295
aI299
aI13
aI27
aI314
aI258
aI12
aI340
aI323
aI147
aI162
aI36
aI359
aI314
aI171
aI160
aI144
aI142
aI324
aI23
aI269
aI192
aI306
aI281
aI140
aI161
aI20
aI22
aI346
aI22
aI0
aI0
aI222
aI10
aI49
aI355
aI163
aI135
aI227
aI179
aI241
aI101
aI322
aI345
aI330
aI20
aI321
aI272
aI341
aI337
aI303
aI0
aI143
aI258
aI28
aI10
aI7
aI0
aI0
aI334
aI340
aI332
aI293
aI304
aI314
aI315
aI309
aI311
aI320
aI359
aI352
aI341
aI10
aI312
aI335
aI79
aI17
aI5
aI180
aI339
aI342
aI334
aI0
aI303
aI336
aI352
aI331
aI205
aI305
aI192
aI193
aI103
aI26
aI234
aI335
aI30
aI90
aI272
aI267
aI357
aI13
aI39
aI287
aI40
aI319
aI14
aI137
aI267
aI26
aI25
aI30
aI330
aI45
aI350
aI0
aI343
aI332
aI333
aI49
aI56
aI352
aI257
aI249
aI149
aI146
aI252
aI248
aI339
aI341
aI50
aI45
aI50
aI94
aI173
aI194
aI225
aI231
aI39
aI6
aI5
aI102
aI235
aI297
aI60
aI0
aI332
aI34
aI65
aI175
aI162
aI133
aI27
aI27
aI52
aI110
aI30
aI17
aI279
aI344
aI342
aI325
aI338
aI158
aI103
aI205
aI81
aI80
aI352
aI121
aI40
aI75
aI259
aI339
aI12
aI122
aI201
aI272
aI79
aI317
aI148
aI154
aI198
aI191
aI187
aI156
aI161
aI165
aI227
aI297
aI295
aI24
aI82
aI277
aI272
aI255
aI40
aI19
aI316
aI3
aI64
aI281
aI298
aI98
aI15
aI12
aI205
aI187
aI251
aI335
aI202
aI95
aI17
aI312
aI192
aI110
aI230
aI136
aI43
aI7
aI286
aI99
aI191
aI22
aI150
aI311
aI334
aI45
aI252
aI250
aI5
aI160
aI90
aI81
aI3
aI193
aI253
aI25
aI345
aI8
aI329
aI95
aI14
aI14
aI230
aI203
aI203
aI115
aI83
aI270
aI330
aI3
aI208
aI307
aI317
aI196
aI318
aI222
aI24
aI308
aI257
aI192
aI29
aI11
aI351
aI146
aI254
aI86
aI322
aI82
aI35
aI54
aI9
aI123
aI136
aI0
aI0
aI335
aI225
aI325
aI265
aI338
aI75
aI295
aI207
aI176
aI306
aI331
aI133
aI104
aI340
aI87
aI182
aI73
aI112
aI269
aI252
aI257
aI320
aI11
aI191
aI245
aI46
aI236
aI77
aI274
aI275
aI335
aI344
aI235
aI249
aI220
aI40
aI48
aI144
aI146
aI130
aI115
aI359
aI8
aI15
aI308
aI310
aI303
aI14
aI11
aI213
aI98
aI100
aI297
aI107
aI292
aI106
aI347
aI171
aI19
aI24
aI270
aI270
aI10
aI94
aI196
aI62
aI149
aI217
aI292
aI99
aI158
aI152
aI65
aI272
aI24
aI101
aI232
aI305
aI147
aI0
aI277
aI79
aI40
aI138
aI51
aI2
aI14
aI329
aI116
aI11
aI138
aI242
aI32
aI330
aI21
aI2
aI255
aI275
aI261
aI2
aI140
aI50
aI335
aI37
aI47
aI4
aI180
aI302
aI281
aI285
aI137
aI39
aI105
aI108
aI345
aI305
aI0
aI50
aI48
aI347
aI289
aI36
aI22
aI22
aI9
aI20
aI0
aI324
aI257
aI249
aI222
aI91
aI83
aI235
aI47
aI321
aI355
aI304
aI65
aI11
aI10
aI255
aI246
aI278
aI263
aI282
aI5
aI17
aI213
aI7
aI13
aI153
aI39
aI249
aI331
aI20
aI108
aI107
aI94
aI99
aI355
aI348
aI150
aI290
aI20
aI20
aI309
aI318
aI45
aI290
aI65
aI350
aI212
aI306
aI140
aI333
aI13
aI3
aI13
aI300
aI185
aI59
aI40
aI115
aI40
aI23
aI319
aI108
aI225
aI317
aI224
aI86
aI317
aI80
aI60
aI235
aI120
aI45
aI314
aI0
aI309
aI220
aI9
aI294
aI289
aI301
aI300
aI310
aI95
aI91
aI96
aI94
aI87
aI115
aI48
aI257
aI256
aI340
aI102
aI296
aI35
aI158
aI342
aI290
aI205
aI339
aI120
aI176
aI68
aI38
aI174
aI167
aI173
aI289
aI65
aI250
aI250
aI323
aI12
aI78
aI72
aI137
aI224
aI342
aI16
aI58
aI145
aI66
aI171
aI84
aI83
aI4
aI278
aI279
aI337
aI344
aI169
aI39
aI60
aI20
aI0
aI262
aI338
aI354
aI17
aI323
aI32
aI308
aI31
aI315
aI304
aI21
aI284
aI98
aI142
aI19
aI158
aI346
aI305
aI5
aI242
aI173
aI121
aI335
aI101
aI28
aI193
aI89
aI290
aI33
aI133
aI245
aI342
aI337
aI35
aI338
aI292
aI190
aI12
aI64
aI67
aI323
aI56
aI47
aI342
aI346
aI265
aI274
aI163
aI332
aI49
aI126
aI315
aI5
aI332
aI350
aI105
aI114
aI295
aI305
aI314
aI110
aI30
aI190
aI217
aI173
aI79
aI268
aI79
aI269
aI26
aI308
aI314
aI321
aI26
aI24
aI299
aI16
aI338
aI1
aI0
aI337
aI18
aI2
aI25
aI305
aI30
aI3
aI2
aI46
aI283
aI62
aI28
aI31
aI318
aI16
aI31
aI29
aI349
aI348
aI283
aI334
aI336
aI343
aI15
aI82
aI306
aI1
aI51
aI179
aI25
aI4
aI28
aI24
aI67
aI311
aI15
aI52
aI0
aI42
aI288
aI343
aI22
aI40
aI332
aI20
aI5
aI298
aI21
aI90
aI0
aI267
aI332
aI17
aI99
aI1
aI338
aI306
aI80
aI28
aI116
aI13
aI0
aI8
aI342
aI259
aI70
aI54
aI0
aI0
aI26
aI7
aI48
aI1
aI83
aI17
aI295
aI0
aI36
aI21
aI0
aI205
aI330
aI359
aI349
aI61
aI0
aI7
aI106
aI74
aI347
aI47
aI306
aI303
aI9
aI330
aI323
aI61
aI326
aI22
aI339
aI328
aI22
aI242
aI326
aI333
aI49
aI23
aI285
aI7
aI9
aI35
aI75
aI332
aI276
aI97
aI322
aI322
aI75
aI315
aI333
aI26
aI305
aI143
aI10
aI0
aI0
aI333
aI37
aI5
aI0
aI0
aI358
aI321
aI327
aI3
aI53
aI325
aI329
aI69
aI302
aI56
aI330
aI52
aI354
aI304
aI322
aI317
aI331
aI335
aI335
aI314
aI343
aI4
aI58
aI3
aI15
aI0
aI333
aI0
aI36
aI3
aI333
aI11
aI0
aI243
aI353
aI42
aI312
aI17
aI334
aI2
aI1
aI8
aI325
aI1
aI324
aI9
aI310
aI32
aI334
aI300
aI0
aI329
aI95
aI5
aI313
aI61
aI356
aI339
aI3
aI329
aI26
aI6
aI277
aI238
aI29
aI2
aI359
aI10
aI14
aI238
aI29
aI42
aI334
aI127
aI21
aI11
aI50
aI324
aI297
aI0
aI335
aI295
aI335
aI4
aI0
aI49
aI77
aI72
aI40
aI14
aI282
aI292
aI0
aI315
aI0
aI248
aI329
aI288
aI26
aI40
aI42
aI32
aI159
aI135
aI37
aI310
aI326
aI3
aI30
aI329
aI12
aI36
aI333
aI36
aI88
aI35
aI18
aI1
aI50
aI348
aI311
aI315
aI334
aI294
aI336
aI13
aI330
aI18
aI331
aI326
aI324
aI62
aI0
aI27
aI121
aI327
aI0
aI15
aI274
aI57
aI330
aI56
aI0
aI330
aI293
aI294
aI128
aI57
aI21
aI20
aI0
aI63
aI30
aI326
aI2
aI36
aI17
aI2
aI34
aI4
aI66
aI180
aI304
aI159
aI335
aI124
aI289
aI19
aI1
aI0
aI1
aI4
aI55
aI332
aI343
aI6
aI344
aI40
aI47
aI0
aI11
aI5
aI312
aI264
aI75
aI149
aI0
aI0
aI25
aI320
aI319
aI336
aI43
aI4
aI35
aI34
aI77
aI330
aI334
aI328
aI0
aI325
aI331
aI53
aI25
aI39
aI15
aI217
aI338
aI61
aI0
aI57
aI3
aI27
aI28
aI0
aI37
aI29
aI33
aI103
aI320
aI11
aI8
aI338
aI36
aI37
aI74
aI295
aI351
aI324
aI42
aI17
aI16
aI26
aI30
aI331
aI17
aI27
aI350
aI338
aI1
aI89
aI302
aI329
aI141
aI334
aI356
aI336
aI294
aI38
aI21
aI31
aI314
aI24
aI288
aI1
aI41
aI17
aI347
aI293
aI327
aI27
aI33
aI13
aI13
aI3
aI0
aI0
aI339
aI323
aI0
aI293
aI338
aI324
aI30
aI42
aI336
aI327
aI41
aI114
aI313
aI359
aI340
aI143
aI323
aI78
aI324
aI0
aI295
aI324
aI282
aI314
aI252
aI65
aI293
aI267
aI79
aI359
aI315
aI291
aI325
aI4
aI0
aI329
aI0
aI327
aI86
aI323
aI334
aI72
aI2
aI317
aI332
aI330
aI24
aI1
aI29
aI346
aI143
aI64
aI1
aI18
aI341
aI327
aI38
aI146
aI2
aI330
aI0
aI320
aI302
aI52
aI325
aI326
aI1
aI43
aI330
aI337
aI80
aI294
aI0
aI311
aI35
aI0
aI290
aI329
aI28
aI32
aI9
aI330
aI20
aI6
aI5
aI43
aI59
aI319
aI3
aI10
aI12
aI0
aI322
aI28
aI333
aI31
aI20
aI1
aI26
aI15
aI38
aI219
aI177
aI195
aI16
aI330
aI328
aI33
aI45
aI25
aI9
aI321
aI297
aI29
aI19
aI29
aI25
aI327
aI54
aI82
aI301
aI323
aI296
aI36
aI272
aI26
aI318
aI322
aI28
aI13
aI330
aI0
aI331
aI0
aI333
aI0
aI32
aI52
aI26
aI329
aI4
aI48
aI332
aI77
aI0
aI0
aI327
aI1
aI26
aI70
aI95
aI54
aI47
aI330
aI76
aI309
aI329
aI37
aI16
aI10
aI334
aI29
aI333
aI0
aI347
aI0
aI1
aI33
aI337
aI299
aI36
aI23
aI38
aI334
aI314
aI118
aI124
aI33
aI36
aI304
aI268
aI63
aI0
aI332
aI0
aI326
aI1
aI37
aI1
aI6
aI21
aI0
aI32
aI313
aI31
aI102
aI344
aI0
aI96
aI262
aI340
aI30
aI13
aI328
aI146
aI2
aI83
aI7
aI3
aI0
aI309
aI29
aI4
aI206
aI333
aI330
aI0
aI289
aI321
aI32
aI62
aI343
aI330
aI29
aI293
aI47
aI330
aI318
aI147
aI45
aI317
aI0
aI0
aI327
aI334
aI321
aI8
aI58
aI47
aI35
aI62
aI286
aI320
aI33
aI7
aI286
aI0
aI4
aI4
aI14
aI0
aI339
aI291
aI348
aI190
aI0
aI27
aI3
aI337
aI2
aI1
aI44
aI336
aI24
aI320
aI50
aI339
aI25
aI322
aI6
aI235
aI313
aI0
aI36
aI0
aI120
aI28
aI332
aI330
aI359
aI339
aI5
aI12
aI329
aI51
aI295
aI0
aI329
aI58
aI285
aI2
aI336
aI140
aI56
aI5
aI78
aI76
aI57
aI289
aI330
aI319
aI0
aI26
aI332
aI336
aI281
aI267
aI22
aI30
aI11
aI0
aI346
aI29
aI316
aI36
aI32
aI21
aI330
aI15
aI41
aI75
aI66
aI6
aI74
aI285
aI44
aI2
aI55
aI239
aI90
aI332
aI38
aI322
aI306
aI1
aI33
aI313
aI2
aI66
aI42
aI0
aI47
aI346
aI0
aI12
aI336
aI341
aI0
aI25
aI6
aI349
aI29
aI358
aI332
aI304
aI0
aI324
aI331
aI1
aI143
aI304
aI345
aI153
aI311
aI300
aI339
aI0
aI138
aI40
aI338
aI0
aI20
aI0
aI330
aI21
aI143
aI339
aI278
aI20
aI324
aI12
aI29
aI343
aI0
aI348
aI333
aI1
aI351
aI34
aI24
aI21
aI12
aI0
aI314
aI40
aI3
aI325
aI327
aI23
aI278
aI35
aI359
aI47
aI333
aI22
aI3
aI17
aI302
aI0
aI3
aI20
aI0
aI61
aI0
aI324
aI1
aI298
aI64
aI15
aI50
aI315
aI0
aI305
aI20
aI32
aI332
aI0
aI12
aI44
aI9
aI1
aI9
aI8
aI0
aI26
aI0
aI334
aI62
aI350
aI275
aI321
aI307
aI7
aI0
aI316
aI2
aI26
aI332
aI13
aI335
aI17
aI327
aI0
aI308
aI23
aI0
aI17
aI216
aI271
aI45
aI231
aI270
aI333
aI32
aI37
aI334
aI18
aI1
aI355
aI2
aI0
aI43
aI0
aI81
aI0
aI11
aI333
aI295
aI5
aI323
aI28
aI37
aI330
aI354
aI0
aI344
aI328
aI11
aI286
aI0
aI330
aI141
aI332
aI323
aI277
aI359
aI310
aI327
aI75
aI335
aI37
aI332
aI330
aI180
aI322
aI130
aI336
aI321
aI0
aI65
aI162
aI40
aI0
aI0
aI31
aI32
aI38
aI317
aI36
aI1
aI0
aI323
aI9
aI193
aI275
aI31
aI56
aI38
aI62
aI6
aI14
aI27
aI313
aI307
aI171
aI319
aI243
aI332
aI24
aI5
aI7
aI3
aI3
aI296
aI0
aI22
aI343
aI329
aI12
aI30
aI313
aI322
aI0
aI116
aI286
aI44
aI186
aI16
aI332
aI13
aI266
aI325
aI324
aI3
aI28
aI4
aI0
aI329
aI37
aI301
aI158
aI0
aI24
aI11
aI323
aI283
aI328
aI308
aI321
aI340
aI1
aI0
aI0
aI0
aI339
aI283
aI345
aI302
aI46
aI0
aI41
aI36
aI29
aI2
aI305
aI78
aI342
aI324
aI4
aI0
aI326
aI334
aI0
aI3
aI300
aI214
aI343
aI0
aI310
aI318
aI1
aI324
aI342
aI218
aI333
aI337
aI310
aI345
aI52
aI35
aI1
aI47
aI0
aI0
aI338
aI25
aI217
aI313
aI123
aI68
aI42
aI52
aI341
aI50
aI1
aI1
aI7
aI46
aI18
aI0
aI0
aI327
aI86
asS'bird'
p38
(lp39
sS'boat'
p40
(lp41
I302
aI0
aI247
aI169
aI132
aI12
aI196
aI214
aI220
aI213
aI204
aI200
aI70
aI85
aI41
aI244
aI134
aI335
aI336
aI35
aI350
aI295
aI103
aI257
aI103
aI325
aI55
aI155
aI179
aI270
aI270
aI270
aI356
aI335
aI190
aI67
aI195
aI338
aI226
aI165
aI165
aI314
aI324
aI300
aI180
aI194
aI47
aI32
aI272
aI245
aI266
aI265
aI203
aI2
aI75
aI92
aI160
aI94
aI275
aI80
aI248
aI292
aI284
aI270
aI281
aI90
aI90
aI245
aI65
aI22
aI205
aI220
aI165
aI212
aI257
aI286
aI112
aI310
aI91
aI340
aI200
aI354
aI0
aI250
aI67
aI172
aI165
aI144
aI270
aI89
aI33
aI292
aI25
aI350
aI275
aI25
aI350
aI0
aI0
aI340
aI98
aI19
aI0
aI92
aI330
aI252
aI230
aI102
aI90
aI0
aI127
aI125
aI154
aI3
aI83
aI90
aI143
aI124
aI250
aI6
aI77
aI86
aI23
aI231
aI102
aI37
aI123
aI65
aI34
aI101
aI235
aI317
aI0
aI327
aI275
aI200
aI154
aI120
aI82
aI10
aI14
aI67
aI291
aI41
aI223
aI205
aI247
aI127
aI112
aI358
aI197
aI189
aI15
aI47
aI0
aI2
aI356
aI10
aI7
aI217
aI224
aI247
aI100
aI90
aI105
aI0
aI297
aI89
aI104
aI110
aI90
aI95
aI100
aI100
aI270
aI293
aI326
aI81
aI330
aI199
aI110
aI337
aI53
aI145
aI12
aI13
aI1
aI353
aI349
aI351
aI356
aI4
aI358
aI0
aI12
aI90
aI145
aI33
aI197
aI67
aI347
aI355
aI169
aI228
aI240
aI180
aI154
aI67
aI24
aI275
aI275
aI252
aI242
aI150
aI297
aI335
aI190
aI211
aI183
aI203
aI270
aI155
aI31
aI90
aI102
aI57
aI84
aI98
aI270
aI250
aI67
aI306
aI307
aI297
aI156
aI193
aI174
aI150
aI229
aI296
aI329
aI15
aI94
aI134
aI300
aI278
aI312
aI302
aI239
aI292
aI99
aI327
aI270
aI127
aI68
aI67
aI76
aI44
aI52
aI242
aI354
aI67
aI57
aI103
aI205
aI20
aI271
aI302
aI300
aI252
aI103
aI269
aI288
aI250
aI259
aI293
aI282
aI264
aI319
aI251
aI122
aI90
aI169
aI275
aI235
aI179
aI54
aI270
aI273
aI270
aI308
aI315
aI0
aI90
aI239
aI307
aI130
aI70
aI219
aI225
aI257
aI0
aI90
aI38
aI149
aI78
aI208
aI320
aI145
aI82
aI90
aI53
aI292
aI321
aI47
aI16
aI305
aI321
aI25
aI15
aI112
aI95
aI337
aI294
aI279
aI21
aI6
aI345
aI166
aI205
aI180
aI195
aI270
aI90
aI147
aI163
aI175
aI260
aI247
aI211
aI95
aI90
aI277
aI289
aI189
aI77
aI33
aI0
aI263
aI158
aI15
aI212
aI203
aI115
aI101
aI72
aI184
aI165
aI43
aI193
aI11
aI338
aI193
aI300
aI40
aI342
aI55
aI113
aI23
aI247
aI1
aI10
aI345
aI82
aI336
aI260
aI0
aI0
aI14
aI272
aI135
aI81
aI104
aI12
aI5
aI1
aI92
aI308
aI290
aI89
aI90
aI46
aI23
aI52
aI350
aI165
aI155
aI257
aI310
aI315
aI20
aI60
aI41
aI275
aI176
aI207
aI200
aI42
aI80
aI7
aI121
aI30
aI351
aI314
aI270
aI36
aI354
aI112
aI247
aI270
aI67
aI115
aI109
aI119
aI323
aI54
aI109
aI99
aI0
aI158
aI167
aI168
aI131
aI133
aI289
aI79
aI85
aI240
aI247
aI305
aI317
aI32
aI332
aI112
aI110
aI318
aI230
aI329
aI352
aI100
aI309
aI159
aI149
aI132
aI278
aI290
aI92
aI45
aI149
aI149
aI163
aI130
aI29
aI154
aI331
aI231
aI326
aI325
aI310
aI96
aI79
aI290
aI312
aI317
aI340
aI97
aI114
aI295
aI270
aI275
aI105
aI266
aI312
aI185
aI120
aI100
aI75
aI260
aI10
aI15
aI20
aI21
aI263
aI190
aI55
aI164
aI180
aI1
aI353
aI175
aI314
aI90
aI275
aI310
aI305
aI305
aI190
aI332
aI227
aI179
aI20
aI270
aI237
aI221
aI333
aI0
aI143
aI180
aI67
aI350
aI265
aI306
aI184
aI257
aI37
aI334
aI171
aI39
aI307
aI197
aI152
aI5
aI132
aI72
aI119
aI106
aI277
aI49
aI132
aI38
aI39
aI129
aI314
aI67
aI301
aI184
aI77
aI265
aI46
aI112
aI77
aI52
aI111
aI310
aI314
aI190
aI322
aI51
aI302
aI146
aI320
aI108
aI65
aI74
aI69
aI28
aI18
aI327
aI127
aI129
aI165
aI0
aI357
aI348
aI259
aI84
aI91
aI342
aI36
aI204
aI287
aI62
aI54
aI217
aI123
aI332
aI162
aI43
aI128
aI21
aI80
aI170
aI247
aI238
aI39
aI90
aI7
aI2
aI349
aI349
aI345
aI332
aI178
aI202
aI6
aI247
aI210
aI32
aI353
aI278
aI269
aI247
aI101
aI57
aI237
aI317
aI257
aI127
aI192
aI17
aI195
aI4
aI330
aI39
aI198
aI107
aI177
aI171
aI34
aI15
aI344
aI350
aI355
aI210
aI290
aI190
aI206
aI311
aI165
aI354
aI316
aI0
aI264
aI215
aI222
aI180
aI345
aI290
aI98
aI292
aI262
aI306
aI20
aI349
aI111
aI21
aI212
aI13
aI280
aI345
aI350
aI120
aI349
aI218
aI278
aI179
aI112
aI343
aI317
aI218
aI238
aI33
aI339
aI168
aI169
aI174
aI184
aI32
aI297
aI29
aI337
aI193
aI157
aI129
aI356
aI0
aI186
aI312
aI122
aI99
aI139
aI27
aI115
aI171
aI212
aI21
aI63
aI87
aI8
aI201
aI16
aI102
aI7
aI205
aI358
aI11
aI56
aI235
aI296
aI303
aI324
aI58
aI168
aI288
aI176
aI255
aI342
aI210
aI127
aI0
aI346
aI37
aI142
aI8
aI311
aI248
aI356
aI247
aI23
aI272
aI311
aI252
aI190
aI182
aI177
aI114
aI142
aI0
aI77
aI23
aI207
aI185
aI355
aI297
aI259
aI22
aI13
aI17
aI64
aI112
aI102
aI78
aI187
aI197
aI164
aI198
aI23
aI322
aI239
aI219
aI17
aI87
aI13
aI325
aI0
aI1
aI92
aI19
aI355
aI248
aI233
aI154
aI5
aI217
aI164
aI77
aI163
aI241
aI67
aI112
aI348
aI342
aI102
aI313
aI343
aI180
aI21
aI9
aI188
aI180
aI112
aI0
aI192
aI130
aI323
aI301
aI228
aI259
aI25
aI193
aI261
aI247
aI3
aI190
aI274
aI251
aI218
aI35
aI352
aI152
aI150
aI0
aI1
aI38
aI202
aI73
aI45
aI349
aI168
aI338
aI6
aI24
aI189
aI23
aI285
aI240
aI2
aI352
aI253
aI205
aI191
aI36
aI122
aI302
aI327
aI117
aI177
aI341
aI180
aI72
aI19
aI74
aI178
aI75
aI39
aI179
aI102
aI157
aI155
aI317
aI145
aI146
aI102
aI243
aI333
aI132
aI172
aI248
aI74
aI336
aI343
aI277
aI330
aI316
aI42
aI94
aI115
aI329
aI327
aI319
aI170
aI195
aI17
aI272
aI247
aI302
aI7
aI307
aI0
aI91
aI142
aI345
aI141
aI236
aI312
aI87
aI34
aI95
aI197
aI14
aI191
aI323
aI39
aI104
aI51
aI56
aI142
aI287
aI247
aI112
aI201
aI22
aI334
aI107
aI56
aI165
aI304
aI45
aI339
aI194
aI294
aI58
aI293
aI324
aI197
aI0
aI297
aI236
aI139
aI223
aI230
aI192
aI293
aI137
aI165
aI247
aI246
aI174
aI184
aI0
aI16
aI134
aI328
aI272
aI331
aI334
aI282
aI105
aI19
aI76
aI348
aI50
aI6
aI131
aI2
aI199
aI259
aI28
aI155
aI320
aI19
aI18
aI292
aI279
aI336
aI355
aI241
aI287
aI62
aI343
aI100
aI317
aI63
aI325
aI319
aI67
aI317
aI222
aI223
aI257
aI108
aI34
aI72
aI307
aI134
aI3
aI16
aI22
aI122
aI192
aI117
aI73
aI275
aI28
aI6
aI172
aI77
aI315
aI333
aI116
aI292
aI160
aI327
aI285
aI277
aI23
aI262
aI355
aI7
aI7
aI28
aI182
aI288
aI280
aI87
aI143
aI112
aI294
aI237
aI34
aI344
aI331
aI332
aI44
aI68
aI267
aI121
aI168
aI10
aI57
aI135
aI179
aI331
aI110
aI38
aI46
aI40
aI188
aI112
aI229
aI322
aI112
aI324
aI335
aI214
aI135
aI111
aI199
aI233
aI45
aI123
aI191
aI281
aI93
aI11
aI288
aI228
aI247
aI55
aI189
aI346
aI324
aI86
aI177
aI35
aI202
aI126
aI157
aI127
aI203
aI150
aI353
aI248
aI55
aI31
aI267
aI170
aI66
aI335
aI190
aI163
aI16
aI334
aI96
aI111
aI279
aI137
aI0
aI336
aI319
aI10
aI179
aI90
aI271
aI268
aI179
aI112
aI90
aI294
aI271
aI234
aI335
aI121
aI41
aI272
aI146
aI27
aI269
aI153
aI312
aI198
aI238
aI338
aI12
aI219
aI58
aI156
aI203
aI353
aI0
aI250
aI195
aI189
aI20
aI57
aI146
aI83
aI305
aI325
aI87
aI179
aI307
aI85
aI190
aI348
aI24
aI91
aI16
aI261
aI331
aI212
aI330
aI0
aI9
aI289
aI241
aI26
aI348
aI293
aI251
aI151
aI157
aI172
aI49
aI232
aI164
aI153
aI323
aI338
aI142
aI347
aI30
aI278
aI17
aI183
aI211
aI211
aI33
aI240
aI320
aI57
aI265
aI155
aI152
aI354
aI2
aI222
aI322
aI306
aI256
aI300
aI336
aI341
aI356
aI346
aI347
aI291
aI112
aI316
aI265
aI328
aI74
aI289
aI0
aI327
aI320
aI165
aI19
aI20
aI102
aI304
aI286
aI302
aI88
aI112
aI355
aI355
aI84
aI257
aI280
aI21
aI183
aI349
aI121
aI3
aI337
aI184
aI228
aI112
aI330
aI350
aI344
aI305
aI262
aI28
aI190
aI204
aI142
aI197
aI297
aI38
aI322
aI174
aI175
aI319
aI72
aI102
aI356
aI211
aI315
aI196
aI324
aI238
aI30
aI341
aI0
aI158
aI150
aI172
aI320
aI72
aI128
aI57
aI188
aI22
aI156
aI265
aI48
aI259
aI47
aI15
aI182
aI247
aI308
aI263
aI167
aI248
aI331
aI73
aI180
aI188
aI87
aI357
aI219
aI320
aI197
aI275
aI141
aI321
aI76
aI32
aI78
aI309
aI169
aI8
aI127
aI241
aI52
aI338
aI108
aI121
aI0
aI40
aI261
aI141
aI82
aI160
aI260
aI37
aI185
aI18
aI179
aI8
aI332
aI321
aI27
aI72
aI63
aI90
aI124
aI90
aI273
aI112
aI160
aI147
aI107
aI257
aI60
aI35
aI172
aI293
aI180
aI93
aI262
aI326
aI199
aI57
aI183
aI348
aI238
aI179
aI92
aI213
aI111
aI30
aI274
aI312
aI277
aI318
aI54
aI60
aI326
aI0
aI272
aI0
aI7
aI16
aI287
aI31
aI180
aI72
aI322
aI271
aI7
aI19
aI180
aI112
aI221
aI18
aI322
aI345
aI194
aI336
aI258
aI254
aI297
aI30
aI23
aI232
aI190
aI300
aI333
aI162
aI22
aI313
aI192
aI213
aI289
aI313
aI335
aI56
aI202
aI296
aI63
aI17
aI130
aI29
aI20
aI179
aI208
aI232
aI178
aI51
aI244
aI167
aI247
aI195
aI0
aI78
aI247
aI314
aI54
aI297
aI229
aI157
aI13
aI297
aI0
aI42
aI123
aI80
aI306
aI112
aI37
aI92
aI0
aI170
aI67
aI322
aI23
aI290
aI141
aI355
aI318
aI178
aI306
aI221
aI222
aI109
aI71
aI142
aI150
aI301
aI63
aI341
aI303
aI343
aI238
aI183
aI323
aI224
aI33
aI117
aI356
aI17
aI183
aI62
aI266
aI270
aI18
aI199
aI179
aI73
aI28
aI37
aI43
aI237
aI357
aI298
aI54
aI267
aI310
aI321
aI349
aI13
aI32
aI278
aI332
aI240
aI212
aI129
aI81
aI16
aI107
aI99
aI22
aI333
aI0
aI174
aI45
aI72
aI185
aI149
aI129
aI6
aI227
aI188
aI189
aI67
aI44
aI42
aI112
aI295
aI252
aI12
aI41
aI74
aI168
aI308
aI252
aI257
aI302
aI51
aI26
aI13
aI354
aI0
aI198
aI139
aI322
aI10
aI267
aI354
aI258
aI292
aI112
aI143
aI72
aI347
aI206
aI170
aI41
aI226
aI163
aI46
aI251
aI210
aI213
aI256
aI33
aI299
aI302
aI247
aI308
aI27
aI29
aI12
aI67
aI312
aI297
aI108
aI160
aI333
aI344
aI297
aI257
aI302
aI180
aI136
aI287
aI351
aI346
aI336
aI152
aI51
aI67
aI204
aI43
aI167
aI329
aI247
aI52
aI262
aI141
aI318
aI96
aI146
aI247
aI27
aI69
aI167
aI45
aI185
aI155
aI247
aI44
aI123
aI122
aI317
aI328
aI350
aI271
aI205
aI177
aI0
aI17
aI38
aI2
aI201
aI348
aI209
aI340
aI121
aI63
aI325
aI333
aI180
aI330
aI37
aI7
aI12
aI34
aI149
aI321
aI23
aI338
aI345
aI340
aI53
aI45
aI267
aI91
aI24
aI191
aI9
aI282
aI200
aI252
aI352
aI321
aI220
aI8
aI97
aI112
aI79
aI317
aI112
aI322
aI279
aI42
aI177
aI13
aI287
aI0
aI122
aI280
aI261
aI0
aI247
aI277
aI104
aI32
aI356
aI352
aI0
aI356
aI58
aI224
aI239
aI199
aI320
aI220
aI257
aI247
aI243
aI285
aI176
aI180
aI316
aI18
aI184
aI96
aI257
aI119
aI175
aI254
aI156
aI292
aI110
aI95
aI282
aI203
aI204
aI284
aI114
aI308
aI174
aI340
aI39
aI31
aI333
aI34
aI87
aI303
aI13
aI172
aI240
aI134
aI164
aI228
aI248
aI172
aI247
aI56
aI29
aI229
aI40
aI134
aI162
aI158
aI78
aI194
aI9
aI19
aI26
aI33
aI48
aI107
aI344
aI269
aI351
aI154
aI173
aI347
aI345
aI347
aI42
aI16
aI148
aI335
aI48
aI351
aI65
aI337
aI52
aI244
aI70
aI1
aI257
aI352
aI29
aI95
aI263
aI255
aI207
aI23
aI1
aI233
aI287
aI42
aI340
aI336
aI62
aI134
aI263
aI257
aI0
aI300
aI28
aI264
aI217
aI36
aI24
aI154
aI82
aI315
aI290
aI19
aI338
aI247
aI51
aI324
aI12
aI3
aI351
aI4
aI353
aI22
aI327
aI25
aI1
aI282
aI36
aI29
aI0
aI180
aI280
aI209
aI236
aI19
aI230
aI24
aI31
aI126
aI92
aI121
aI334
aI324
aI40
aI297
aI269
aI145
aI292
aI130
aI181
aI282
aI328
aI174
aI128
aI255
aI304
aI307
aI251
aI229
aI85
aI257
aI312
aI292
aI122
aI242
aI124
aI235
aI185
aI348
aI80
aI323
aI0
aI277
aI346
aI349
aI159
aI23
aI1
aI16
aI127
aI260
aI336
aI353
aI349
aI341
aI270
aI13
aI6
aI24
aI0
aI148
aI0
aI310
aI245
aI22
aI157
aI154
aI324
aI145
aI216
aI124
aI118
aI42
aI67
aI185
aI203
aI161
aI0
aI277
aI96
aI354
aI326
aI208
aI221
aI142
aI218
aI35
aI308
aI282
aI155
aI37
aI349
aI140
aI3
aI83
aI80
aI37
aI17
aI16
aI170
aI130
aI179
aI272
aI177
aI282
aI179
aI175
aI11
aI338
aI0
aI72
aI6
aI117
aI196
aI173
aI83
aI337
aI205
aI233
aI156
aI178
aI196
aI214
aI0
aI162
aI172
aI303
aI218
aI45
aI283
aI204
aI36
aI194
aI331
aI353
aI343
aI346
aI330
aI222
aI277
aI17
aI81
aI165
aI163
aI117
aI61
aI26
aI292
aI17
aI350
aI348
aI320
aI343
aI46
aI2
aI348
aI57
aI29
aI16
aI96
aI53
aI184
aI152
aI150
aI5
aI166
aI331
aI0
aI287
aI0
aI7
aI7
aI335
aI77
aI90
aI331
aI191
aI21
aI224
aI91
aI276
aI79
aI304
aI14
aI162
aI182
aI112
aI7
aI195
aI10
aI318
aI1
aI321
aI328
aI78
aI272
aI255
aI0
aI78
aI184
aI37
aI80
aI95
aI1
aI77
aI52
aI275
aI131
aI229
aI236
aI201
aI6
aI107
aI335
aI247
aI339
aI86
aI0
aI199
aI194
aI253
aI310
aI272
aI218
aI141
aI255
aI270
aI167
aI0
aI94
aI140
aI302
aI7
aI135
aI144
aI160
aI341
aI86
aI9
aI351
aI302
aI137
aI334
aI183
aI341
aI334
aI72
aI357
aI74
aI79
aI229
aI112
aI228
aI297
aI11
aI252
aI169
aI303
aI306
aI341
aI301
aI318
aI21
aI112
aI233
aI312
aI331
aI201
aI31
aI180
aI76
aI274
aI107
aI21
aI66
aI110
aI226
aI195
aI160
aI144
aI297
aI255
aI184
aI86
aI323
aI297
aI22
aI161
aI60
aI14
aI36
aI57
aI174
aI166
aI65
aI106
aI267
aI345
aI185
aI180
aI274
aI31
aI52
aI213
aI19
aI165
aI340
aI87
aI287
aI74
aI260
aI215
aI307
aI307
aI356
aI5
aI340
aI93
aI344
aI247
aI14
aI47
aI189
aI23
aI169
aI121
aI189
aI214
aI150
aI0
aI257
aI158
aI351
aI235
aI4
aI322
aI34
aI239
aI162
aI247
aI242
aI72
aI328
aI261
aI38
aI151
aI8
aI0
aI36
aI186
aI11
aI5
aI28
aI145
aI52
aI71
aI178
aI201
aI187
aI197
aI323
aI175
aI323
aI41
aI247
aI107
aI34
aI320
aI234
aI252
aI178
aI50
aI351
aI192
aI334
aI334
aI96
aI17
aI171
aI103
aI176
aI0
aI112
aI158
aI354
aI38
aI27
aI212
aI105
aI72
aI87
aI345
aI202
aI50
aI350
aI341
aI222
aI277
aI72
aI67
aI239
aI250
aI189
aI17
aI0
aI79
aI338
aI252
aI171
aI118
aI247
aI265
aI205
aI309
aI285
aI201
aI226
aI27
aI8
aI292
aI247
aI168
aI22
aI7
aI240
aI58
aI77
aI253
aI52
aI209
aI248
aI156
aI50
aI0
aI218
aI0
aI247
aI182
aI350
aI269
aI220
aI227
aI64
aI11
aI0
aI227
aI30
aI61
aI314
aI327
aI239
aI77
aI185
aI215
aI303
aI272
aI271
aI35
aI51
aI141
aI331
aI161
aI9
aI197
aI117
aI332
aI230
aI259
aI57
aI168
aI77
aI155
aI279
aI316
aI207
aI78
aI8
aI259
aI289
aI67
aI283
aI269
aI278
aI202
aI11
aI179
aI10
aI351
aI300
aI189
aI226
aI0
aI157
aI272
aI287
aI1
aI174
aI185
aI198
aI282
aI262
aI277
aI332
aI8
aI165
aI201
aI174
aI165
aI67
aI221
aI337
aI149
aI275
aI329
aI247
aI238
aI169
aI104
aI168
aI346
aI132
aI9
aI185
aI327
aI247
aI208
aI336
aI143
aI312
aI85
aI257
aI21
aI50
aI24
aI292
aI241
aI247
aI106
aI305
aI80
aI180
aI322
aI134
aI356
aI36
aI159
aI0
aI295
aI289
aI67
aI112
aI112
aI191
aI180
aI230
aI60
aI170
aI210
aI34
aI112
aI330
aI1
aI282
aI12
aI0
aI4
aI207
aI194
aI189
aI22
aI24
aI38
aI218
aI264
aI167
aI54
aI91
aI335
aI337
aI339
aI242
aI337
aI185
aI44
aI321
aI283
aI86
aI0
aI355
aI179
aI4
aI352
aI185
aI19
aI247
aI166
aI112
aI335
aI352
aI141
aI162
aI282
aI335
aI213
aI309
aI330
aI343
aI107
aI344
aI293
aI7
aI316
aI85
aI320
aI33
aI157
aI341
aI270
aI329
aI0
aI116
aI285
aI225
aI311
aI340
aI309
aI157
aI190
aI36
aI306
aI14
aI147
aI6
aI32
aI67
aI250
aI191
aI1
aI25
aI28
aI180
aI247
aI185
aI0
aI44
aI282
aI292
aI214
aI217
aI225
aI48
aI331
aI266
aI325
aI301
aI345
aI351
aI0
aI228
aI266
aI89
aI161
aI326
aI44
aI232
aI49
aI339
aI165
aI245
aI339
aI351
aI102
aI125
aI12
aI195
aI191
aI284
aI309
aI169
aI316
aI336
aI27
aI320
aI24
aI326
aI110
aI352
aI352
aI282
aI195
aI314
aI101
aI205
aI333
aI95
aI13
aI126
aI207
aI103
aI264
aI92
aI338
aI16
aI308
aI45
aI145
aI191
aI183
aI285
aI301
aI188
aI72
aI217
aI41
aI317
aI320
aI175
aI247
aI69
aI138
aI247
aI315
aI2
aI136
aI346
aI91
aI13
aI0
aI202
aI346
aI118
aI97
aI302
aI240
aI324
aI4
aI112
aI35
aI355
aI247
aI301
aI342
aI36
aI309
aI278
aI346
aI282
aI247
aI105
aI45
aI207
aI87
aI0
aI157
aI291
aI279
aI318
aI356
aI277
aI247
aI232
aI337
aI89
aI15
aI8
aI222
aI340
aI180
aI349
aI82
aI92
aI159
aI144
aI320
aI340
aI210
aI247
aI224
aI28
aI67
aI256
aI296
aI186
aI189
aI283
aI299
aI277
aI247
aI266
aI262
aI212
aI41
aI313
aI68
aI14
aI17
aI346
aI309
aI246
aI30
aI46
aI251
aI303
aI287
aI252
aI189
aI62
aI36
aI130
aI78
aI260
aI216
aI219
aI249
aI73
aI82
aI252
aI242
aI351
aI0
aI180
aI0
aI162
aI249
aI270
aI222
aI352
aI99
aI3
aI287
aI174
aI34
aI11
aI200
aI331
aI157
aI252
aI42
aI45
aI206
aI200
aI313
aI323
aI109
aI172
aI246
aI110
aI257
aI0
aI0
aI350
aI185
aI355
aI72
aI350
aI104
aI310
aI247
aI305
aI237
aI183
aI305
aI121
aI62
aI334
aI336
aI321
aI157
aI267
aI267
aI18
aI13
aI14
aI266
aI236
aI112
aI208
aI64
aI0
aI283
aI5
aI355
aI109
aI129
aI271
aI21
aI99
aI146
aI67
aI150
aI72
aI268
aI201
aI161
aI118
aI113
aI24
aI152
aI215
aI172
aI133
aI150
aI322
aI135
aI202
aI198
aI82
aI330
aI194
aI0
aI343
aI354
aI22
aI55
aI39
aI336
aI112
aI248
aI175
aI263
aI297
aI344
aI313
aI3
aI79
aI107
aI240
aI179
aI246
aI236
aI30
aI194
aI30
aI152
aI340
aI82
aI269
aI25
aI79
aI335
aI306
aI152
aI346
aI23
aI273
aI16
aI100
aI185
aI0
aI355
aI220
aI160
aI119
aI329
aI112
aI282
aI0
aI5
aI334
aI189
aI341
aI315
aI190
aI112
aI154
aI16
aI133
aI112
aI33
aI324
aI30
aI135
aI332
aI233
aI8
aI189
aI130
aI32
aI101
aI247
aI292
aI22
aI13
aI242
aI186
aI334
aI356
aI322
aI144
aI310
aI171
aI62
aI0
aI28
aI59
aI339
aI243
aI2
aI0
aI348
aI96
aI344
aI343
aI23
aI262
aI42
aI94
aI76
aI141
aI251
aI292
aI53
aI76
aI21
aI280
aI48
aI331
aI287
aI297
aI37
aI66
aI267
aI257
aI11
aI192
aI0
aI320
aI256
aI302
aI351
aI294
aI287
aI29
aI105
aI315
aI95
aI351
aI328
aI199
aI22
aI15
aI83
aI5
aI227
aI119
aI203
aI52
aI274
aI40
aI29
aI17
aI40
aI145
aI97
aI316
aI261
aI112
aI165
aI149
aI74
aI77
aI313
aI0
aI32
aI181
aI261
aI197
aI20
aI159
aI233
aI227
aI12
aI342
aI125
aI172
aI0
aI28
aI263
aI337
aI300
aI341
aI265
aI116
aI164
aI247
aI67
aI107
aI143
aI332
aI311
aI15
aI2
aI70
aI23
aI207
aI309
aI322
aI0
aI339
aI0
aI166
aI138
aI112
aI334
aI86
aI297
aI292
aI344
aI173
aI8
aI33
aI75
aI9
aI342
aI67
aI103
aI315
aI82
aI185
aI196
aI20
aI28
aI185
aI187
aI35
aI170
aI169
aI208
aI168
aI70
aI96
aI203
aI180
aI5
aI338
aI152
aI336
aI353
aI17
aI0
aI34
aI34
aI229
aI224
aI310
aI311
aI94
aI0
aI315
aI5
aI185
aI84
aI252
aI218
aI279
aI317
aI286
aI199
aI180
aI164
aI160
aI42
aI286
aI342
aI180
aI178
aI67
aI56
aI112
aI77
aI193
aI143
aI112
aI142
aI262
aI62
aI332
aI149
aI319
aI203
aI267
aI194
aI12
aI250
aI247
aI189
aI42
aI224
aI199
aI212
aI336
aI165
aI183
aI0
aI42
aI30
aI267
aI67
aI286
aI47
aI40
aI7
aI83
aI213
aI165
aI258
aI81
aI322
aI168
aI347
aI252
aI172
aI160
aI165
aI351
aI292
aI44
aI106
aI74
aI286
aI140
aI189
aI139
aI292
aI55
aI319
aI10
aI207
aI348
aI88
aI326
aI244
aI12
aI26
aI20
aI26
aI247
aI286
aI327
aI187
aI67
aI193
aI205
aI266
aI168
aI185
aI4
aI82
aI37
aI226
aI289
aI136
aI352
aI183
aI311
aI206
aI247
aI347
aI162
aI188
aI46
aI235
aI20
aI355
aI347
aI262
aI139
aI185
aI262
aI333
aI180
aI53
aI122
aI199
aI180
aI62
aI262
aI235
aI277
aI48
aI171
aI100
aI227
aI150
aI270
aI115
aI153
aI111
aI284
aI120
aI150
aI37
aI180
aI215
aI352
aI85
aI73
aI340
aI355
aI215
aI6
aI247
aI337
aI127
aI317
aI167
aI326
aI201
aI37
aI17
aI332
aI199
aI194
aI231
aI166
aI48
aI282
aI319
aI216
aI256
aI30
aI154
aI175
aI349
aI321
aI329
aI336
aI292
aI92
aI341
aI90
aI94
aI248
aI62
aI332
aI72
aI125
aI17
aI192
aI159
asa.